((dp0
S'arm_dbg_args'
p1
S'-via:"c:\\Users\\Jordan\\Documents\\GitHub\\words\\build_words_vc12x\\words_vc12x_arm_debug.via" -qemu'
p2
sS'game-icf'
p3
S''
p4
sS'dist'
p5
NsS'csproj'
p6
g4
sS'module_path_append'
p7
NsS'global_path'
p8
S'c:\\users\\jordan\\documents\\github'
p9
sS'system_path'
p10
S'c:\\marmalade\\7.8\\s3e\\makefile_builder'
p11
sS'android_x86_dbg_args'
p12
S'../../tools/DeployTool/DeployTool.exe --dir "c:\\Users\\Jordan\\Documents\\GitHub\\words\\build_words_vc12x"'
p13
sS'aarch64-arch-mod'
p14
g4
sS'no-emit'
p15
NsS'arm-float-abi'
p16
g4
sS'arm_rel_rtsm_args'
p17
S'-via:"c:\\Users\\Jordan\\Documents\\GitHub\\words\\build_words_vc12x\\words_vc12x_arm_release.via" -qemu'
p18
sS'amd64'
p19
NsS'line-width'
p20
I80
sS'gcc_dbg_args'
p21
S'-via:"c:\\Users\\Jordan\\Documents\\GitHub\\words\\build_words_vc12x\\words_vc12x_gcc_debug.via" -qemu'
p22
sS'sim-release-loader'
p23
NsS'android-x86'
p24
NsS'x86_dbg_exe'
p25
S'c:/marmalade/7.8/s3e\\win32\\s3e_simulator_debug.exe'
p26
sS'jflags'
p27
NsS'nacl_x86_64_rel_args'
p28
g13
sS'release'
p29
NsS'no-make'
p30
NsS'xcode-x86-build-settings'
p31
g4
sS'optimise-size'
p32
NsS'fat'
p33
NsS'output-name-debug'
p34
g4
sS'arm-fpu'
p35
g4
sS'proj_name'
p36
S'words_vc12x'
p37
sS'rvct-version'
p38
S'none'
p39
sS'compiler'
p40
g4
sS'execute'
p41
NsS'compile-static'
p42
NsS'nacl_x86_64_rel_exe'
p43
S'c:\\marmalade\\7.8\\s3e\\makefile_builder\\tool_launcher.exe'
p44
sS'msvc-project'
p45
I01
sS'buildenv'
p46
S'VC12X'
p47
sS'quick'
p48
NsS'module_path'
p49
NsS'mkf_default'
p50
S's3e-default.mkf'
p51
sS'use-release-std-libs'
p52
NsS'using_perforce'
p53
I00
sS'tizen-x86'
p54
NsS'mips-s3e'
p55
NsS's3e-api-lib-name'
p56
S's3e_api_iwgl'
p57
sS'ios-no-pic'
p58
NsS'shared-arm-lib'
p59
NsS'arm-cpu'
p60
g4
sS'compile-thumb'
p61
NsS'no-ide'
p62
NsS'msvc-version'
p63
S'6.0'
p64
sS'arm'
p65
NsS'nacl_x86_64_dbg_exe'
p66
g44
sS'builddir'
p67
g4
sS'compile-debug-as-release'
p68
I0
sS'arm-arch'
p69
g4
sS'brief'
p70
NsS'dll'
p71
NsS'buildenv-toolset'
p72
g4
sS'version'
p73
NsS'aarch64-arch'
p74
g4
sS'ccache'
p75
I0
sS'offline'
p76
NsS'ios-version'
p77
g4
sS'hub_data'
p78
g4
sS'fake_vc_call'
p79
NsS'jobs'
p80
I0
sS'linkflags'
p81
NsS'gcc_aarch64_dbg_args'
p82
g13
sS'nacl_x86_64_dbg_args'
p83
g13
sS'debug'
p84
NsS'xcode-build-order'
p85
g4
sS'gcc_aarch64_rel_rtsm_args'
p86
S'-via:"c:\\Users\\Jordan\\Documents\\GitHub\\words\\build_words_vc12x\\words_vc12x_gcc_aarch64_release.via" -qemu'
p87
sS'gcc_rel_rtsm_args'
p88
S'-via:"c:\\Users\\Jordan\\Documents\\GitHub\\words\\build_words_vc12x\\words_vc12x_gcc_release.via" -qemu'
p89
sS'done_defaults'
p90
I1
sS'path'
p91
(lp92
S'c:/marmalade/7.8/tools/gcc/x86_64/nacl_windows/toolchain/win_x86_glibc/bin'
p93
asS's3e-data-dir'
p94
S'c:/Users/Jordan/Documents/GitHub/words\\data'
p95
sS'enable-exceptions'
p96
NsS'osx-dll'
p97
NsS'extension'
p98
g4
sS'no-vc6'
p99
NsS'aarch64'
p100
NsS'win32-console'
p101
NsS'dist-format'
p102
g4
sS's3e-force-arch'
p103
NsS'dump_defines'
p104
NsS'use-shared-std-libs'
p105
NsS'gcc-version'
p106
g4
sS'x86_dbg_args'
p107
S'-via:"c:\\Users\\Jordan\\Documents\\GitHub\\words\\build_words_vc12x\\words_vc12x_debug.via"'
p108
sS'nacl'
p109
NsS'tizen_x86_dbg_args'
p110
g13
sS'arm-debugger'
p111
g4
sS'use_temp_extension'
p112
NsS'verbose'
p113
I0
sS'log'
p114
NsS'no-strip'
p115
NsS'rebuild'
p116
NsS'mips_dbg_args'
p117
g13
sS'win32-simulator-dll'
p118
NsS'strict'
p119
NsS'xcode-aarch64-build-settings'
p120
g4
sS'enable-global-path'
p121
NsS'gcc_aarch64_rel_args'
p122
g13
sS'cflags'
p123
NsS'dist-dir'
p124
g4
sS'xcode-arm-build-settings'
p125
g4
sS'disable-runtime-checks'
p126
NsS'csprojSDKRefs'
p127
g4
sS'tizen_x86_rel_exe'
p128
g44
sS'test-assets'
p129
g4
sS'distcc'
p130
NsS'external-compiler'
p131
NsS'no-distcc'
p132
NsS'retry-build'
p133
S'0'
p134
sS'preinclude'
p135
NsS'using_sdk'
p136
I01
sS'nologo'
p137
NsS'warn-level'
p138
I2
sS'mips_dbg_exe'
p139
g44
sS'mkb_in'
p140
S'c:/Users/Jordan/Documents/GitHub/words/words.mkb'
p141
sS'no-objc-arc'
p142
NsS'tizen_x86_dbg_exe'
p143
g44
sS'arm_dbg_exe'
p144
S'c:/marmalade/7.8/s3e\\bin\\armdebug.exe'
p145
sS'mdev-first'
p146
NsS'csprojDLLRef'
p147
NsS'tizen_x86_rel_args'
p148
g13
sS'android_x86_dbg_exe'
p149
g44
sS'naclx86_64'
p150
NsS'test-config'
p151
g4
sS'list-targets'
p152
NsS'arm_rel_exe'
p153
g44
sS'arm_rel_args'
p154
g13
sS'makedeps'
p155
NsS'android_x86_rel_exe'
p156
g44
sS'default-buildenv'
p157
S'vc12x'
p158
sS'x86_rel_exe'
p159
g26
sS'preprocess-java'
p160
NsS'mips_rel_args'
p161
g13
sS'defines'
p162
NsS'lib'
p163
NsS'non-interactive'
p164
NsS'global_argv'
p165
(lp166
S'C:\\Marmalade\\7.8\\s3e\\makefile_builder\\mkb.py'
p167
aS'c:/Users/Jordan/Documents/GitHub/words/words.mkb'
p168
aS'--buildenv=VC12X'
p169
aS'--default-buildenv=vc12x'
p170
aS'--msvc-project'
p171
asS'make'
p172
NsS'optimise-speed'
p173
NsS'internal'
p174
NsS'enable-stdinc'
p175
NsS'deploy-only'
p176
NsS'x86'
p177
NsS'deploy'
p178
g4
sS'objc-arc'
p179
NsS'x86_run_exe'
p180
S'c:/marmalade/7.8/s3e\\win32\\s3e_simulator_debug.exe'
p181
sS'cxxflags'
p182
NsS'x86_rel_args'
p183
S'-via:"c:\\Users\\Jordan\\Documents\\GitHub\\words\\build_words_vc12x\\words_vc12x_release.via"'
p184
sS'gcc_rel_args'
p185
g13
sS'mips'
p186
NsS'xcode-build-settings'
p187
g4
sS'incredibuild'
p188
NsS'strict-compile'
p189
NsS'use-auto-subdirs'
p190
NsS'mips_rel_exe'
p191
g44
sS'android_x86_rel_args'
p192
g13
sS'app-icf'
p193
g4
sS'deployargs'
p194
NsS'iosnativedebug'
p195
NsS'use_prebuilt'
p196
NsS'mkf_in'
p197
(lp198
S'c:\\marmalade\\7.8\\s3e\\s3e-default.mkf'
p199
aS'c:\\marmalade\\7.8\\extensions\\s3eamazonads\\s3eamazonads.mkf'
p200
aS'c:\\marmalade\\7.8\\modules\\iwutil\\iwutil.mkf'
p201
aS'c:\\marmalade\\7.8\\modules\\third_party\\libjpeg\\libjpeg.mkf'
p202
aS'c:\\marmalade\\7.8\\modules\\third_party\\libpng\\libpng.mkf'
p203
aS'c:\\marmalade\\7.8\\modules\\third_party\\zlib\\zlib.mkf'
p204
aS'c:\\marmalade\\7.8\\platform_libs\\android\\amazon-ads-android-sdk\\amazon-ads-android-sdk.mkf'
p205
aS'c:\\marmalade\\7.8\\platform_libs\\iphone\\amazon-ads-ios-sdk\\amazon-ads-ios-sdk.mkf'
p206
aS'c:\\marmalade\\7.8\\modules\\iw2dscenegraphcore\\iw2dscenegraphcore.mkf'
p207
aS'c:\\marmalade\\7.8\\modules\\iw2dscenegraph\\iw2dscenegraph.mkf'
p208
aS'c:\\marmalade\\7.8\\modules\\iw2d\\iw2d.mkf'
p209
aS'c:\\marmalade\\7.8\\modules\\iwgx\\iwgx.mkf'
p210
aS'c:\\marmalade\\7.8\\modules\\iwgl\\iwgl.mkf'
p211
aS'c:\\marmalade\\7.8\\modules\\iwgeom\\iwgeom.mkf'
p212
aS'c:\\marmalade\\7.8\\modules\\iwresmanager\\iwresmanager.mkf'
p213
aS'c:\\marmalade\\7.8\\extensions\\pvrtextool\\pvrtextool.mkf'
p214
aS'c:\\marmalade\\7.8\\modules\\iwgxfont\\iwgxfont.mkf'
p215
aS'c:\\marmalade\\7.8\\modules\\third_party\\tiniconv\\tiniconv.mkf'
p216
aS'c:\\marmalade\\7.8\\modules\\iwtween\\iwtween.mkf'
p217
asS'strict-mkb'
p218
NsS'executeargs'
p219
NsS'clean'
p220
NsS'no-asm'
p221
NsS'output-name'
p222
g4
sS'no-modules'
p223
NsS'find_define'
p224
g4
s(dp225
S'c:\\marmalade\\7.8\\s3e\\makefile_builder\\nacl.mkf'
p226
F1433986780.0
sS'c:\\marmalade\\7.8\\s3e\\makefile_builder\\docs'
p227
F1434919661.8753853
sS'c:\\marmalade\\7.8\\s3e\\makefile_builder\\templates\\Info.plist'
p228
F1433986780.0
sS'c:\\marmalade\\7.8\\s3e\\makefile_builder\\templates\\ws8_csproj.pyc'
p229
F1433996176.0
sS'c:\\marmalade\\7.8\\s3e\\makefile_builder\\templates\\xcode4.xcscheme'
p230
F1433986780.0
sS'c:\\marmalade\\7.8\\s3e\\makefile_builder\\docs\\mkb.defines.txt'
p231
F1433986780.0
sS'c:\\marmalade\\7.8\\s3e\\makefile_builder\\templates\\xcode_pbxuser.py'
p232
F1433986780.0
sS'c:\\marmalade\\7.8\\s3e\\makefile_builder\\plugins\\vc6_utils.pyc'
p233
F1433996256.0
sS'c:\\marmalade\\7.8\\s3e\\makefile_builder\\plugins\\s3e_make.pyc'
p234
F1433995438.0
sS'c:\\marmalade\\7.8\\s3e\\makefile_builder\\templates\\ws8_ext_sln.pyc'
p235
F1433995538.0
sS'c:\\marmalade\\7.8\\s3e\\makefile_builder\\docs\\deprecated.options.txt'
p236
F1433986780.0
sS'c:\\marmalade\\7.8\\s3e\\makefile_builder\\plugins\\MakeEmitter.pyc'
p237
F1433995776.0
sS'c:\\marmalade\\7.8\\s3e\\makefile_builder\\plugins\\s3e_web.pyc'
p238
F1433995886.0
sS'c:\\marmalade\\7.8\\s3e\\makefile_builder\\templates\\ws8_ext_csproj.pyc'
p239
F1433995624.0
sS'c:\\marmalade\\7.8\\s3e\\makefile_builder\\plugins\\xcode4_schememanagement.py'
p240
F1433986780.0
sS'c:\\marmalade\\7.8\\s3e\\makefile_builder\\templates\\win8_sln.pyc'
p241
F1433995702.0
sS'c:\\marmalade\\7.8\\s3e\\makefile_builder\\plugins\\s3e_xcode.pyc'
p242
F1435009225.778198
sS'c:\\marmalade\\7.8\\s3e\\makefile_builder\\plugins\\S3EEmitter.pyc'
p243
F1433996282.0
sS'c:\\marmalade\\7.8\\s3e\\makefile_builder\\templates\\gdb_start.txt'
p244
F1433986780.0
sS'c:\\marmalade\\7.8\\s3e\\makefile_builder\\templates\\ws81_vcxproj.pyc'
p245
F1433996176.0
sS'c:\\marmalade\\7.8\\s3e\\makefile_builder\\templates\\template.opt'
p246
F1433986780.0
sS'c:\\marmalade\\7.8\\s3e\\makefile_builder\\templates\\vc8_user.pyc'
p247
F1433995962.0
sS'c:\\marmalade\\7.8\\s3e\\makefile_builder\\templates\\xcode4_arm.xcscheme'
p248
F1433986780.0
sS'c:\\marmalade\\7.8\\s3e\\makefile_builder\\docs\\deployment_options.txt'
p249
F1433986780.0
sS'c:\\marmalade\\7.8\\s3e\\makefile_builder\\mkb_globals.pyc'
p250
F1433996320.0
sS'c:\\marmalade\\7.8\\s3e\\makefile_builder\\templates\\template.suo'
p251
F1433986780.0
sS'c:\\marmalade\\7.8\\s3e\\makefile_builder\\plugins\\s3e_qmake.py'
p252
F1433986780.0
sS'c:\\marmalade\\7.8\\s3e\\makefile_builder\\plugins\\SConsEmitter.pyc'
p253
F1433995690.0
sS'c:\\marmalade\\7.8\\s3e\\makefile_builder\\plugins\\xcode4_schememanagement.pyc'
p254
F1435009225.517444
sS'c:\\marmalade\\7.8\\s3e\\makefile_builder\\plugins\\Win8Emitter.pyc'
p255
F1433995972.0
sS'c:\\marmalade\\7.8\\s3e\\makefile_builder\\plugins\\null.pyc'
p256
F1433995914.0
sS'c:\\marmalade\\7.8\\s3e\\makefile_builder\\templates\\ws8_csproj_user.pyc'
p257
F1433995498.0
sS'c:\\marmalade\\7.8\\s3e\\makefile_builder\\templates\\win8_vcxproj.pyc'
p258
F1433996320.0
sS'c:\\marmalade\\7.8\\s3e\\makefile_builder\\plugins\\s3e_wp81.pyc'
p259
F1433996216.0
sS'c:\\marmalade\\7.8\\s3e\\makefile_builder\\plugins\\ws8_ws8.pyc'
p260
F1433996320.0
sS'c:\\marmalade\\7.8\\s3e\\makefile_builder\\templates\\ws8_vcxproj.pyc'
p261
F1433996308.0
sS'c:\\marmalade\\7.8\\s3e\\makefile_builder\\plugins'
p262
F1435009225.7757576
sS'c:\\marmalade\\7.8\\s3e\\makefile_builder\\mkb_launcher.exe'
p263
F1433987744.0
sS'c:\\marmalade\\7.8\\s3e\\makefile_builder\\templates\\rvct_linker_script'
p264
F1433986780.0
sS'c:\\marmalade\\7.8\\s3e\\makefile_builder\\plugins\\osx_scons.pyc'
p265
F1433995628.0
sS'c:\\marmalade\\7.8\\s3e\\makefile_builder\\docs\\options.txt'
p266
F1433986780.0
sS'c:\\marmalade\\7.8\\s3e\\makefile_builder\\templates\\win32_dsp.pyc'
p267
F1433996292.0
sS'c:\\marmalade\\7.8\\s3e\\makefile_builder\\templates\\qmake_user.py'
p268
F1433986780.0
sS'c:\\marmalade\\7.8\\s3e\\makefile_builder\\plugins\\java.pyc'
p269
F1433995830.0
sS'c:\\marmalade\\7.8\\s3e\\makefile_builder\\templates\\win8_csproj_user.pyc'
p270
F1433995626.0
sS'c:\\marmalade\\7.8\\s3e\\makefile_builder\\templates\\linker_script'
p271
F1433986780.0
sS'c:\\marmalade\\7.8\\s3e\\makefile_builder\\plugins\\win8_utils.pyc'
p272
F1433996252.0
sS'c:\\marmalade\\7.8\\s3e\\makefile_builder\\tool_launcher.exe'
p273
F1433987744.0
sS'c:\\marmalade\\7.8\\s3e\\makefile_builder\\mkb_parser.pyc'
p274
F1433995732.0
sS'c:\\marmalade\\7.8\\s3e\\makefile_builder\\plugins\\XcodeEmitter.pyc'
p275
F1435009225.5014327
sS'c:\\marmalade\\7.8\\s3e\\makefile_builder\\mkb_main.pyc'
p276
F1433995866.0
sS'c:\\marmalade\\7.8\\s3e\\makefile_builder\\plugins\\s3e_wp8.pyc'
p277
F1433996224.0
sS'c:\\marmalade\\7.8\\s3e\\makefile_builder\\templates\\win32_dsw.pyc'
p278
F1433995444.0
sS'c:\\marmalade\\7.8\\s3e\\makefile_builder\\templates\\wp8_csproj_user.pyc'
p279
F1433996036.0
sS'c:\\marmalade\\7.8\\s3e\\makefile_builder\\plugins\\s3e_qmake.pyc'
p280
F1435009225.681957
sS'c:\\marmalade\\7.8\\s3e\\makefile_builder\\templates\\win32_vcproj.pyc'
p281
F1433996210.0
sS'c:\\marmalade\\7.8\\s3e\\makefile_builder\\templates\\wp81_sln.pyc'
p282
F1433995882.0
sS'c:\\marmalade\\7.8\\s3e\\makefile_builder\\plugins\\s3e_win8.pyc'
p283
F1433995702.0
sS'c:\\marmalade\\7.8\\s3e\\makefile_builder\\templates\\wp81_ext_sln.pyc'
p284
F1433995710.0
sS'c:\\marmalade\\7.8\\s3e\\makefile_builder\\templates\\scons.pyc'
p285
F1433996314.0
sS'c:\\marmalade\\7.8\\s3e\\makefile_builder\\plugins\\ws81_ws81.pyc'
p286
F1433995890.0
sS'c:\\marmalade\\7.8\\s3e\\makefile_builder\\templates\\ws8_sln.pyc'
p287
F1433996252.0
sS'c:\\marmalade\\7.8\\s3e\\makefile_builder\\plugins\\linux_scons.pyc'
p288
F1433996320.0
sS'c:\\marmalade\\7.8\\s3e\\makefile_builder\\deployment.pyc'
p289
F1433996006.0
sS'c:\\marmalade\\7.8\\s3e\\makefile_builder\\templates\\win32_sln.pyc'
p290
F1433996320.0
sS'c:\\marmalade\\7.8\\s3e\\makefile_builder\\mkb_option.pyc'
p291
F1433995462.0
sS'c:\\marmalade\\7.8\\s3e\\makefile_builder\\templates\\wp81_csproj_user.pyc'
p292
F1433995866.0
sS'c:\\marmalade\\7.8\\s3e\\makefile_builder\\templates\\xcode.py'
p293
F1433986780.0
sS'c:\\marmalade\\7.8\\s3e\\makefile_builder\\templates\\ws81_csproj.pyc'
p294
F1433995690.0
sS'c:\\marmalade\\7.8\\s3e\\makefile_builder\\plugins\\s3e_xcode.py'
p295
F1433986780.0
sS'c:\\marmalade\\7.8\\s3e\\makefile_builder\\templates\\wp8_sln.pyc'
p296
F1433995626.0
sS'c:\\marmalade\\7.8\\s3e\\makefile_builder\\templates\\wp81_vcxproj.pyc'
p297
F1433995734.0
sS'c:\\marmalade\\7.8\\s3e\\makefile_builder\\plugins\\vc7_utils.pyc'
p298
F1433995766.0
sS'c:\\marmalade\\7.8\\s3e\\makefile_builder\\mkb.py'
p299
F1433986780.0
sS'c:\\marmalade\\7.8\\s3e\\makefile_builder\\plugins\\iphone.pyc'
p300
F1433996012.0
sS'c:\\marmalade\\7.8\\s3e\\makefile_builder\\mkb_util.pyc'
p301
F1433995748.0
sS'c:\\marmalade\\7.8\\s3e\\makefile_builder\\plugins\\deploy.pyc'
p302
F1433995872.0
sS'c:\\marmalade\\7.8\\s3e\\makefile_builder\\templates\\aarch64_linker_script'
p303
F1433986780.0
sS'c:\\marmalade\\7.8\\s3e\\makefile_builder\\plugins\\osx_xcode.pyc'
p304
F1433995568.0
sS'c:\\marmalade\\7.8\\s3e\\makefile_builder\\docs\\parse_options.pyc'
p305
F1433996292.0
sS'c:\\marmalade\\7.8\\s3e\\makefile_builder\\templates\\MainWindow.xib'
p306
F1433986780.0
sS'c:\\marmalade\\7.8\\s3e\\makefile_builder\\templates\\win8_ext_csproj.pyc'
p307
F1433995774.0
sS'c:\\marmalade\\7.8\\s3e\\makefile_builder\\templates\\wp81_csproj.pyc'
p308
F1433995810.0
sS'c:\\marmalade\\7.8\\s3e\\makefile_builder\\templates\\win8_csproj.pyc'
p309
F1433996352.0
sS'c:\\marmalade\\7.8\\s3e\\makefile_builder\\templates\\ws81_csproj_user.pyc'
p310
F1433996282.0
sS'c:\\marmalade\\7.8\\s3e\\makefile_builder\\templates\\ws81_ext_sln.pyc'
p311
F1433995658.0
sS'c:\\marmalade\\7.8\\s3e\\makefile_builder\\plugins\\XcodeEmitter.py'
p312
F1433986780.0
sS'c:\\marmalade\\7.8\\s3e\\makefile_builder\\templates\\vc6_opt.pyc'
p313
F1433996264.0
sS'c:\\marmalade\\7.8\\s3e\\makefile_builder\\templates\\ws81_ext_csproj.pyc'
p314
F1433996144.0
sS'c:\\marmalade\\7.8\\s3e\\makefile_builder\\templates\\wp8_vcxproj.pyc'
p315
F1433995812.0
sS'c:\\marmalade\\7.8\\s3e\\makefile_builder\\templates\\wp8_csproj.pyc'
p316
F1433996294.0
sS'c:\\marmalade\\7.8\\s3e\\makefile_builder\\templates\\mips_linker_script'
p317
F1433986780.0
sS'c:\\marmalade\\7.8\\s3e\\makefile_builder\\templates\\win32_vcxproj_filters.pyc'
p318
F1433995626.0
sS'c:\\marmalade\\7.8\\s3e\\makefile_builder\\plugins\\s3e_ws8.pyc'
p319
F1433996272.0
sS'c:\\marmalade\\7.8\\s3e\\makefile_builder\\templates\\wp81_ext_csproj.pyc'
p320
F1433996264.0
sS'c:\\marmalade\\7.8\\s3e\\makefile_builder\\plugins\\s3e_scons.pyc'
p321
F1433995942.0
sS'c:\\marmalade\\7.8\\s3e\\makefile_builder\\plugins\\wp8_wp8.pyc'
p322
F1433995962.0
sS'c:\\marmalade\\7.8\\s3e\\makefile_builder\\templates\\wp8_ext_csproj.pyc'
p323
F1433996336.0
sS'c:\\marmalade\\7.8\\s3e\\makefile_builder\\templates\\win32_vcxproj.pyc'
p324
F1433996256.0
sS'c:\\marmalade\\7.8\\s3e\\makefile_builder\\plugins\\wp81_wp81.pyc'
p325
F1433995472.0
sS'c:\\marmalade\\7.8\\s3e\\makefile_builder\\templates\\qmake.py'
p326
F1433986780.0
sS'c:\\marmalade\\7.8\\s3e\\makefile_builder\\plugins\\win32_vc6.pyc'
p327
F1433995664.0
sS'c:\\marmalade\\7.8\\s3e\\makefile_builder\\docs\\deprecated.defines.txt'
p328
F1433986780.0
sS'c:\\marmalade\\7.8\\s3e\\makefile_builder\\templates\\vc10_user.pyc'
p329
F1433996206.0
sS'c:\\marmalade\\7.8\\s3e\\makefile_builder\\templates'
p330
F1434919663.7387047
sS'c:\\marmalade\\7.8\\s3e\\makefile_builder\\plugins\\s3e_ws81.pyc'
p331
F1433996282.0
sS'c:\\marmalade\\7.8\\s3e\\makefile_builder\\templates\\ws81_sln.pyc'
p332
F1433996252.0
sS'c:\\marmalade\\7.8\\s3e\\makefile_builder\\mkb_upstream.pyc'
p333
F1433995942.0
sS'c:\\marmalade\\7.8\\s3e\\makefile_builder\\templates\\xcode4_DeployTool.xcscheme'
p334
F1433986780.0
sS'c:\\marmalade\\7.8\\s3e\\makefile_builder\\plugins\\s3e_vc6.pyc'
p335
F1433995622.0
sS'c:\\marmalade\\7.8\\s3e\\makefile_builder\\templates\\make.py'
p336
F1433986780.0
sS'c:\\marmalade\\7.8\\s3e\\makefile_builder\\templates\\vc7_suo.pyc'
p337
F1433996216.0
sS'c:\\marmalade\\7.8\\s3e\\makefile_builder\\plugins\\Emitter.pyc'
p338
F1433995862.0
sS'c:\\marmalade\\7.8\\s3e\\makefile_builder\\plugins\\VisualStudioEmitter.pyc'
p339
F1433995812.0
sccopy_reg
_reconstructor
p340
(cmkb_main
MkbFile
p341
c__builtin__
object
p342
Ntp343
Rp344
(dp345
g5
(lp346
sS'target_name'
p347
S'words'
p348
sS'current_file'
p349
g141
sS'package_path'
p350
(lp351
sS'post_build'
p352
(lp353
(lp354
S'c:/marmalade/7.8/s3e/tools'
p355
aS'C:\\Marmalade\\7.8\\s3e\\python\\python.exe .\\process_map.py "$(TargetPath)"'
p356
aa(S'c:\\marmalade\\7.8\\s3e\\bin'
p357
S'"s3e_plink" -l "$(TargetPath)" '
p358
g177
tp359
asS'librarys'
p360
(lp361
g340
(cmkb_main
Library
p362
g342
Ntp363
Rp364
(dp365
S'name'
p366
S'vc6_compat.lib'
p367
sS'expand_name'
p368
I00
sS'include_spec_rvct_objs'
p369
(lp370
sS'include_all_objs'
p371
I00
sS'share_arm'
p372
I00
sS'arch'
p373
S'x86'
p374
sS'nodebug'
p375
I00
sg40
Nsbag340
(g362
g342
Ntp376
Rp377
(dp378
g366
S'iwutil'
p379
sg368
I01
sg369
(lp380
sg371
Nsg372
Nsg373
Nsg375
I00
sg40
Nsbag340
(g362
g342
Ntp381
Rp382
(dp383
g366
S'jpeg'
p384
sg368
I01
sg369
g380
sg371
Nsg372
Nsg373
Nsg375
I00
sg40
Nsbag340
(g362
g342
Ntp385
Rp386
(dp387
g366
S'z'
p388
sg368
I01
sg369
g380
sg371
Nsg372
Nsg373
Nsg375
I00
sg40
Nsbag340
(g362
g342
Ntp389
Rp390
(dp391
g366
S'png'
p392
sg368
I01
sg369
g380
sg371
Nsg372
Nsg373
Nsg375
I00
sg40
Nsbag340
(g362
g342
Ntp393
Rp394
(dp395
g366
S'iw2d'
p396
sg368
I01
sg369
g380
sg371
Nsg372
Nsg373
Nsg375
I00
sg40
Nsbag340
(g362
g342
Ntp397
Rp398
(dp399
g366
S'ATI_Compress_MT_VC7.lib'
p400
sg368
I00
sg369
g380
sg371
Nsg372
Nsg373
S'x86'
p401
sg375
I00
sg40
Nsbag340
(g362
g342
Ntp402
Rp403
(dp404
g366
S'iwgx'
p405
sg368
I01
sg369
g380
sg371
Nsg372
Nsg373
Nsg375
I00
sg40
Nsbag340
(g362
g342
Ntp406
Rp407
(dp408
g366
S'iwgl'
p409
sg368
I01
sg369
g380
sg371
Nsg372
Nsg373
Nsg375
I00
sg40
Nsbag340
(g362
g342
Ntp410
Rp411
(dp412
g366
S'iwgeom'
p413
sg368
I01
sg369
g380
sg371
Nsg372
Nsg373
Nsg375
I00
sg40
Nsbag340
(g362
g342
Ntp414
Rp415
(dp416
g366
S'iwresmanager'
p417
sg368
I01
sg369
g380
sg371
Nsg372
Nsg373
Nsg375
I00
sg40
Nsbag340
(g362
g342
Ntp418
Rp419
(dp420
g366
S'iwgxfont'
p421
sg368
I01
sg369
g380
sg371
Nsg372
Nsg373
Nsg375
I00
sg40
Nsbag340
(g362
g342
Ntp422
Rp423
(dp424
g366
S'tiniconv'
p425
sg368
I01
sg369
g380
sg371
Nsg372
Nsg373
Nsg375
I00
sg40
Nsbag340
(g362
g342
Ntp426
Rp427
(dp428
g366
S's3e_cpp'
p429
sg368
I01
sg369
g370
sg371
I00
sg372
I00
sg373
Nsg375
I00
sg40
Nsbag340
(g362
g342
Ntp430
Rp431
(dp432
g366
S's3e_vc12'
p433
sg368
I01
sg369
(lp434
S'iwcrt.o'
p435
asg371
I00
sg372
I00
sg373
S'x86'
p436
sg375
I00
sg40
Nsbag340
(g362
g342
Ntp437
Rp438
(dp439
g366
S's3e'
p440
sg368
I01
sg369
(lp441
g435
asg371
I00
sg372
I00
sg373
S'!x86'
p442
sg375
I00
sg40
Nsbag340
(g362
g342
Ntp443
Rp444
(dp445
g366
g57
sg368
I01
sg369
g370
sg371
I00
sg372
I00
sg373
S'x86'
p446
sg375
I01
sg40
Nsbag340
(g362
g342
Ntp447
Rp448
(dp449
g366
g57
sg368
I01
sg369
g370
sg371
I00
sg372
I00
sg373
S'!x86'
p450
sg375
I01
sg40
Nsbag340
(g362
g342
Ntp451
Rp452
(dp453
g366
S'stdc++'
p454
sg368
I00
sg369
g370
sg371
I00
sg372
I00
sg373
S'mips'
p455
sg375
I00
sg40
Nsbag340
(g362
g342
Ntp456
Rp457
(dp458
g366
S'c'
p459
sg368
I00
sg369
g370
sg371
I00
sg372
I00
sg373
S'mips'
p460
sg375
I00
sg40
Nsbag340
(g362
g342
Ntp461
Rp462
(dp463
g366
S'm'
p464
sg368
I00
sg369
g370
sg371
I00
sg372
I00
sg373
S'mips'
p465
sg375
I00
sg40
Nsbag340
(g362
g342
Ntp466
Rp467
(dp468
g366
S'gcc'
p469
sg368
I00
sg369
g370
sg371
I00
sg372
I00
sg373
S'mips'
p470
sg375
I00
sg40
Nsbag340
(g362
g342
Ntp471
Rp472
(dp473
g366
g469
sg368
I00
sg369
g370
sg371
I00
sg372
I00
sg373
S'naclx86_64'
p474
sg375
I00
sg40
Nsbag340
(g362
g342
Ntp475
Rp476
(dp477
g366
S'gcc_eh'
p478
sg368
I00
sg369
g370
sg371
I00
sg372
I00
sg373
S'naclx86_64'
p479
sg375
I00
sg40
Nsbag340
(g362
g342
Ntp480
Rp481
(dp482
g366
g459
sg368
I00
sg369
g370
sg371
I00
sg372
I00
sg373
S'naclx86_64'
p483
sg375
I00
sg40
Nsbag340
(g362
g342
Ntp484
Rp485
(dp486
g366
g464
sg368
I00
sg369
g370
sg371
I00
sg372
I00
sg373
S'naclx86_64'
p487
sg375
I00
sg40
Nsbag340
(g362
g342
Ntp488
Rp489
(dp490
g366
S'supc++'
p491
sg368
I00
sg369
g370
sg371
I00
sg372
I00
sg373
S'naclx86_64'
p492
sg375
I00
sg40
Nsbag340
(g362
g342
Ntp493
Rp494
(dp495
g366
S'supc++'
p496
sg368
I00
sg369
g370
sg371
I00
sg372
I00
sg373
S'gcc_x86_android'
p497
sg375
I00
sg40
Nsbag340
(g362
g342
Ntp498
Rp499
(dp500
g366
g459
sg368
I00
sg369
g370
sg371
I00
sg372
I00
sg373
S'gcc_x86_android'
p501
sg375
I00
sg40
Nsbag340
(g362
g342
Ntp502
Rp503
(dp504
g366
g464
sg368
I00
sg369
g370
sg371
I00
sg372
I00
sg373
S'gcc_x86_android'
p505
sg375
I00
sg40
Nsbag340
(g362
g342
Ntp506
Rp507
(dp508
g366
g469
sg368
I00
sg369
g370
sg371
I00
sg372
I00
sg373
S'gcc_x86_android'
p509
sg375
I00
sg40
Nsbag340
(g362
g342
Ntp510
Rp511
(dp512
g366
S'dl'
p513
sg368
I00
sg369
g370
sg371
I00
sg372
I00
sg373
S'gcc_x86_android'
p514
sg375
I00
sg40
NsbasS'library_paths'
p515
(lp516
g340
(cmkb_main
LibraryPath
p517
g342
Ntp518
Rp519
(dp520
S'expand_path'
p521
I01
sg366
S'c:/marmalade/7.8/modules/iwutil'
p522
sbag340
(g517
g342
Ntp523
Rp524
(dp525
g521
I01
sg366
S'c:/marmalade/7.8/modules/third_party/libjpeg'
p526
sbag340
(g517
g342
Ntp527
Rp528
(dp529
g521
I01
sg366
S'c:/marmalade/7.8/modules/third_party/zlib'
p530
sbag340
(g517
g342
Ntp531
Rp532
(dp533
g521
I01
sg366
S'c:/marmalade/7.8/modules/third_party/libpng'
p534
sbag340
(g517
g342
Ntp535
Rp536
(dp537
g521
I01
sg366
S'c:/marmalade/7.8/modules/iw2d'
p538
sbag340
(g517
g342
Ntp539
Rp540
(dp541
g521
I00
sg366
S'c:/marmalade/7.8/modules/iwgx/atitools'
p542
sbag340
(g517
g342
Ntp543
Rp544
(dp545
g521
I01
sg366
S'c:/marmalade/7.8/modules/iwgx'
p546
sbag340
(g517
g342
Ntp547
Rp548
(dp549
g521
I01
sg366
S'c:/marmalade/7.8/modules/iwgl'
p550
sbag340
(g517
g342
Ntp551
Rp552
(dp553
g521
I01
sg366
S'c:/marmalade/7.8/modules/iwgeom'
p554
sbag340
(g517
g342
Ntp555
Rp556
(dp557
g521
I01
sg366
S'c:/marmalade/7.8/modules/iwresmanager'
p558
sbag340
(g517
g342
Ntp559
Rp560
(dp561
g521
I01
sg366
S'c:/marmalade/7.8/modules/iwgxfont'
p562
sbag340
(g517
g342
Ntp563
Rp564
(dp565
g521
I01
sg366
S'c:/marmalade/7.8/modules/third_party/tiniconv'
p566
sbag340
(g517
g342
Ntp567
Rp568
(dp569
g521
I01
sg366
S'c:/marmalade/7.8/s3e'
p570
sbasS'macros'
p571
(dp572
S'IW_TRACE_CHANNEL_AMAZONADS'
p573
S'1'
p574
sS'IW_USE_CALLSTACK'
p575
NsS'IW_PLATFORM_S3E'
p576
NsS'I3D_PLATFORM_S3E'
p577
NsS'IW_MKF_IW2DSCENEGRAPHCORE'
p578
NsS'IW_TRACE_CHANNEL_AMAZONADS_VERBOSE'
p579
S'2'
p580
sS'IW_MKF_LIBJPEG'
p581
NsS'I3D_OS_S3E'
p582
NsS'IW_MKF_PVRTEXTOOL'
p583
NsS'IW_MKF_AMAZON_ADS_IOS_SDK'
p584
NsS'IW_MKF_TINICONV'
p585
NsS'IW_APP_VERSION'
p586
S'"1.0"'
p587
sS'__S3E__'
p588
NsS'IW_MKF_IWRESMANAGER'
p589
NsS'IW_MKF_FREELICENSE'
p590
NsS'IW_MKF_S3EAMAZONADS'
p591
NsS'IW_MKF_IWUTIL'
p592
NsS'IW_SDK'
p593
NsS'IW_MKF_AMAZON_ADS_ANDROID_SDK'
p594
NsS'IW_ASSERTION_CHANNEL_2D'
p595
g574
sS'IW_APP_NAME'
p596
S'"words"'
p597
sS'IW_MKF_S3E_DEFAULT'
p598
NsS'IW_MKF_IWGXFONT'
p599
NsS'IW_MKF_IWTWEEN'
p600
NsS'IW_MKF_ZLIB'
p601
NsS'IW_MKF_IWGX'
p602
NsS'IW_MKF_IW2DSCENEGRAPH'
p603
NsS'IW_ASSERTION_CHANNEL_AMAZONADS'
p604
g574
sS'IW_USE_ASSERTIONS'
p605
NsS'_CRT_SECURE_NO_DEPRECATE'
p606
NsS'IW_MKF_IWGL'
p607
NsS'IW_MKF_LIBPNG'
p608
NsS'IW_TRACE_CHANNEL_IW_2DSCENEGRAPH'
p609
g574
sS'IW_DEBUG'
p610
NsS'IW_USE_TRACING'
p611
NsS'IW_ASSERTION_CHANNEL_IW_2DSCENEGRAPH'
p612
g574
sS'IW_TRACE_CHANNEL_PVRTEXTOOL'
p613
g574
sS'S3E_INCLUDE_LEGACY'
p614
NsS'IW_TRACE_CHANNEL_PVRTEXTOOL_VERBOSE'
p615
g580
sS'IW_MKF_IW2D'
p616
NsS'IW_MKF_IWGEOM'
p617
NsS'IW_ASSERTION_CHANNEL_PVRTEXTOOL'
p618
g574
ssS'done_warnings'
p619
(dp620
sS'subprojects'
p621
(dp622
g207
S'iw2dscenegraphcore'
p623
sg216
S'tiniconv'
p624
sg204
S'zlib'
p625
sg201
S'iwutil'
p626
sg215
S'iwgxfont'
p627
sg213
S'iwresmanager'
p628
sg203
S'libpng'
p629
sg200
S's3eAmazonAds'
p630
sg214
S'PVRTexTool'
p631
sg211
S'iwgl'
p632
sg206
S'amazon-ads-ios-sdk'
p633
sg202
S'libjpeg'
p634
sg199
S's3e-default.mkf'
p635
sg209
S'iw2d'
p636
sg212
S'iwgeom'
p637
sg210
S'iwgx'
p638
sg208
S'iw2dscenegraph'
p639
sg205
S'amazon-ads-android-sdk'
p640
sg217
S'iwtween'
p641
ssS'deployments'
p642
(dp643
S'Default'
p644
g340
(cdeployment
Deployment
p645
g342
Ntp646
Rp647
(dp648
S'got_version'
p649
I0
sS'assets'
p650
g644
sS'mkb'
p651
g344
sS'target'
p652
Nsg373
(lp653
sS'options'
p654
(dp655
S'iphone-link-lib'
p656
(lp657
S's3eAmazonAds'
p658
asS'game-icf'
p659
NsS'android-tm'
p660
NsS'winmobile-icon32'
p661
NsS'ws8-logo-image150x150'
p662
NsS'wp81-logo-image150x150'
p663
NsS'android-keystore'
p664
NsS'osx-ext-dll'
p665
(lp666
S'c:/marmalade/7.8/extensions/pvrtextool/lib/osx/libPVRTexTool.dylib'
p667
asS'iphone-provisioning-profile'
p668
NsS'ws8-splash-screen-image620x300'
p669
NsS'wp81-extra-pri'
p670
(lp671
sS'ws8-ext-capabilities'
p672
(lp673
sS'android-icon-hdpi'
p674
NsS'iphone-ipad-only'
p675
NsS'iphone-splash-full-orient'
p676
NsS'wp8-tile-fliptemplate-supports-large'
p677
NsS'iphone-show-status-bar'
p678
NsS'roku-requires-mkv'
p679
NsS'long-caption'
p680
NsS'android-pkgname'
p681
NsS'ws8-ext-native-only-dll'
p682
(lp683
sS'wp81-publisher-display-name'
p684
NsS'blackberry-permissions-read-device-identifying-information'
p685
NsS'ws81-certificate-end-date'
p686
NsS'psp-dlgcontentid'
p687
NsS'iphone-minimum-ios-version'
p688
NsS'target-folder'
p689
NsS'tizen-dist1-CA-path'
p690
NsS'symbian-icon2-format'
p691
NsS'tizen-author-key'
p692
NsS'firefoxos-icon-128X128'
p693
NsS'iphone-region'
p694
NsS'uiq3-icon3-mask'
p695
NsS'brew-encoding'
p696
NsS'android-x86'
p697
NsS'nds-initialcode'
p698
NsS'iphone-persistent-wifi'
p699
NsS'psp-snd0'
p700
NsS'roku-icon-focus-hd'
p701
NsS'osx-appid'
p702
NsS'ws81-ext-native-only-dll'
p703
(lp704
sS'winmobile-install-folder'
p705
NsS'android-external-res'
p706
(lp707
sS'ws8-product-version'
p708
NsS'brew-priviledges'
p709
NsS'iphone-info-plist-override'
p710
NsS'iphone-icon-ipad'
p711
NsS'iphone-skip-icon-generation'
p712
NsS'nacl-icon-128X128'
p713
NsS'roku-hidden'
p714
NsS'psp-titlename'
p715
NsS'wp81-product-version'
p716
NsS'symbian-icon1-mask'
p717
NsS'psp-parentallevel'
p718
NsS'iphone-launch-storyboard'
p719
NsS'splashscreen-use-all'
p720
NsS'wp8-author'
p721
NsS'symbian-disable-ecompxl'
p722
NsS'splashscreen-auto-onblack'
p723
NsS'iphone-icon-dir'
p724
NsS'iphone-icon-extra'
p725
NsS'win32-ext-dll'
p726
(lp727
S'c:/marmalade/7.8/extensions/pvrtextool/lib/win32/PVRTexTool.dll'
p728
asS'iphone-development-key'
p729
NsS'winmobile-icon48'
p730
NsS'android-unsigned'
p731
NsS'osx-appstore-category'
p732
NsS'version-revision'
p733
NsS'roku-icon-focus-sd'
p734
NsS'ws81-product-version'
p735
NsS'winmobile-png90'
p736
NsS'iphone-icon-ipad-high-res'
p737
NsS'iphone-disable-ipad'
p738
NsS'ws81-splash-screen-background'
p739
NsS'wp8-ext-capabilities'
p740
(lp741
sS'brew-icon-large'
p742
NsS'symbian-icon1-mask-black'
p743
NsS'ws8-extra-res'
p744
(lp745
sS'iphone-bundle-localisations'
p746
NsS'winmobile-png60'
p747
NsS'blackberry-permissions-access-shared'
p748
NsS'blackberry-author'
p749
NsS'android-icon-xxxhdpi'
p750
NsS'olddeploytoolstyle'
p751
NsS'android_icon_gallery'
p752
NsS'wp81-splash-screen-background'
p753
NsS'winmobile-cab-compress'
p754
NsS'iphone-info-plist'
p755
NsS'ws81-ext-managed-dll'
p756
(lp757
sS'playbook-cskpass'
p758
NsS'win32-icon'
p759
NsS'symbian-key'
p760
NsS'app-icf'
p761
NsS'blackberry-storepass'
p762
NsS'wp8-tile-fliptemplate-back-title'
p763
NsS'brew-compress-loader'
p764
NsS'iphone-testflight'
p765
NsS'win32-pref-windowposy'
p766
NsS'win32-pref-windowposx'
p767
NsS'roku-requires-audiometadata'
p768
NsS'wp8-exclude-low-mem'
p769
NsS'android-min-sdk-version'
p770
NsS'wp8-tile-fliptemplate-title'
p771
NsS'iphone-icon-ipad-search-high-res'
p772
NsS'iphone-link-libdir'
p773
(lp774
S'c:/marmalade/7.8/extensions/s3eamazonads/lib/iphone'
p775
asS'wp81-ext-capabilities'
p776
(lp777
sS'blackberry-permissions-read-geolocation'
p778
NsS'ws81-ext-device-capabilities'
p779
(lp780
sS'tizen-signed'
p781
NsS'android-extra-application-manifest'
p782
(lp783
S'c:/marmalade/7.8/extensions/s3eamazonads/source/android/ExtraAppManifests.xml'
p784
asS'ws8-ext-native-dll'
p785
(lp786
sS'symbian-icon2-mask'
p787
NsS'iphone-launch-extra'
p788
NsS'webos-memory'
p789
NsS'android-keypass'
p790
NsS'name'
p791
S'TestDeploy'
p792
sS'uiq3-icon2-format'
p793
NsS'roku-splash-screen-sd'
p794
NsS'auto-derbh'
p795
NsS'roku-icon-side-sd'
p796
NsS'android-external-assets'
p797
(lp798
sS'nds-publicsavedatasize'
p799
NsS'splashscreen'
p800
NsS'brew-mif'
p801
NsS'iphone-icon-settings-high-res'
p802
NsS'android-manifest'
p803
NsS'ws81-splash-screen-image620x300'
p804
NsS'wp81-product-name'
p805
NsS's3e-compression'
p806
NsS'tizen-author-password'
p807
NsS'wp8-tile-fliptemplate-back-content'
p808
NsS'blackberry-extra-descriptor'
p809
(lp810
sS'android-java-source-version'
p811
NsS'symbian-icon1'
p812
NsS'symbian-icon2'
p813
NsS'nds-makercode'
p814
NsS'android-extra-styles-file'
p815
NsS'android-ext-target-sdk-version'
p816
(lp817
I17
asS'wp81-publisher-id'
p818
NsS'nds-bannertitle-jp'
p819
NsS'wp81-logo-image44x44'
p820
NsS'osx-sign-for-store'
p821
NsS'symbian7-uid'
p822
NsS'wp8-tile-fliptemplate-large-back-content'
p823
NsS'wp81-phone-publisher-id'
p824
NsS'nds-bannertitle-cn'
p825
NsS'iphone-distribution-key'
p826
NsS'android-icon-gallery'
p827
NsS'blackberry-keystore'
p828
NsS'iphone-nosign'
p829
NsS'caption'
p830
NsS'nacl-permissions'
p831
NsS'android-extra-manifest'
p832
(lp833
sS'wp81-ext-sdk-ref'
p834
(lp835
sS'android-icon-xxhdpi'
p836
NsS'version-minor'
p837
NsS'iphone-skip-launch-generation'
p838
NsS'iphone-link-libdirs'
p839
(lp840
sS'iphone-icon-large'
p841
NsS'symbian-keypwd'
p842
NsS'symbian8-uid'
p843
NsS'symbian-cert-key'
p844
NsS'winmobile-ampd-part-number'
p845
NsS'arch'
p846
NsS'nds-romheadertemplate'
p847
NsS'webos-icon'
p848
NsS'wp81-ext-device-capabilities'
p849
(lp850
sS'psp-dlgprotectdocument'
p851
NsS'ws8-splash-screen-background'
p852
NsS'android-icon-mdpi'
p853
NsS'android-sdk-build-tools-version'
p854
NsS'nds-icon'
p855
NsS'ws8-custom-manifest-fill'
p856
NsS'iphone-development-cert'
p857
NsS'symbian-icon2-mask-black'
p858
NsS'blackberry-phone-icon'
p859
NsS'iphone-enable-4inch-retina'
p860
NsS'ws8-custom-manifest'
p861
NsS'version-major'
p862
NsS'wp8-genre-isgame'
p863
NsS'uiq3-uid'
p864
NsS'iphone-splash-retina-generate'
p865
NsS'tizen-hw-acceleration'
p866
NsS'iphone_bundle_localisations'
p867
NsS'tizen-dist1-key'
p868
NsS'wp81-custom-manifest-fill'
p869
NsS'wp8-custom-manifest'
p870
NsS'nds-bannertitle-ge'
p871
NsS'iphone-sign-for-distribution'
p872
NsS'wp8-tile-fliptemplate-medium-back-image'
p873
NsS'wp8-publisher-id'
p874
NsS'icon'
p875
NsS'android-target-sdk-version'
p876
NsS'wp8-exclude-wxga'
p877
NsS'wp81-identity-name'
p878
NsS'uiq3-icon2-mask'
p879
NsS'iphone-splashscreen-portrait'
p880
NsS'iphone-icon-high-res'
p881
NsS'ws81-distribution-pfx-password'
p882
NsS'playbook-author'
p883
NsS'android-icon-xhdpi'
p884
NsS'linux-ext-lib'
p885
(lp886
sS'blackberry-permissions-access-internet'
p887
NsS'wp8-exclude-720p'
p888
NsS'lgtv-use-drm'
p889
NsS'symbian-platsecflags'
p890
NsS'ws8-description'
p891
NsS'blackberry-playbook-icon'
p892
NsS'copyright'
p893
NsS'ws8-distribution-pfx-password'
p894
NsS'win32-gles-directory'
p895
NsS'version'
p896
NsS'android-ext-min-sdk-version'
p897
(lp898
I4
asS'iphone-uiviewcontroller-based-status-bar'
p899
NsS'ws81-logo-image150x150'
p900
NsS'osx-signing-identity-app'
p901
NsS'tizen-project-url'
p902
NsS'symbian-icon-svg'
p903
NsS'android-aliasname'
p904
NsS'psp-dlgmanual'
p905
NsS'brew-uid'
p906
NsS'wp81-ext-native-only-dll'
p907
(lp908
sS'symbian-locationsupport'
p909
NsS'wp81-logo-image50x50'
p910
NsS'ws8-ext-managed-dll'
p911
(lp912
sS'nds-bannertitle-it'
p913
NsS'ws81-custom-manifest-fill'
p914
NsS'ws8-ext-sdk-manifest-part'
p915
(lp916
sS'uiq3-icon1-mask'
p917
NsS'winmobile-icon16'
p918
NsS'ws8-product-name'
p919
NsS'blackberry-cskpass'
p920
NsS'winmobile-start-menu-folder'
p921
NsS'brew-clsid'
p922
NsS'roku-requires-bluetooth'
p923
NsS'iphone-default-development-profile'
p924
NsS'ws8-ext-device-capabilities'
p925
(lp926
sS'blackberry-permissions-use-camera'
p927
NsS'ws81-extra-pri'
p928
(lp929
sS'iphone-prerendered-icon'
p930
NsS'iphone-appid'
p931
NsS'ws8-identity-name'
p932
NsS'tizen-dist2-CA-path'
p933
NsS'android-external-jars'
p934
(lp935
S'c:/marmalade/7.8/platform_libs/android/amazon-ads-android-sdk/third_party/lib/amazon-ads-5.4.235.jar'
p936
aS'c:/marmalade/7.8/extensions/s3eamazonads/lib/android/s3eAmazonAds.jar'
p937
asS'winmobile-icon64'
p938
NsS'blackberry-permissions-post-notification'
p939
NsS'winmobile-setup-dll'
p940
NsS'firefoxos-manifest'
p941
NsS'win8-winrt-extra-res'
p942
(lp943
sS'wp81-ext-sdk-manifest-part'
p944
(lp945
sS'symbian9-uid'
p946
NsS'iphone-icon-ipad-ios7'
p947
NsS'winmobile-trace-file'
p948
NsS'roku-splash-color'
p949
NsS'psp-appversion'
p950
NsS'android-java-target-version'
p951
NsS'ws8-publisher-id'
p952
NsS'android-supports-gl-texture'
p953
(lp954
sS'winmobile-png45'
p955
NsS'wp81-extra-res'
p956
(lp957
sS'android-storepass'
p958
NsS'nacl-icon-16X16'
p959
NsS'osx-signing-identity-inst'
p960
NsS'android-custom-activity'
p961
NsS'psp-discversion'
p962
NsS'wp81-ext-managed-dll'
p963
(lp964
sS'nacl-clear-user-data'
p965
NsS'psp-copyright'
p966
NsS'embed-icf'
p967
NsS'tizen-manifest'
p968
NsS'osx-icon'
p969
NsS'webos-appinfo'
p970
NsS'psp-dlghealthwarning'
p971
NsS'webos-appid'
p972
NsS'roku-icon-side-hd'
p973
NsS'iphone-icon-ipad-search-high-res-ios7'
p974
NsS'iphone-extra-plist'
p975
(lp976
sS'ws81-ext-sdk-manifest-part'
p977
(lp978
sS'loader_name_prefix'
p979
NsS'iphone-launch-dir'
p980
NsS'nds-titlename'
p981
NsS'ws81-logo-image50x50'
p982
NsS'wp81-custom-manifest'
p983
NsS'osx-entitlements-plist'
p984
NsS'psp-dlgicon0'
p985
NsS'winmobile-nouninstall'
p986
NsS'psp-discid'
p987
NsS'tizen-dist2-password'
p988
NsS'nacl-legacy-ext'
p989
NsS'ws8-ext-sdk-ref'
p990
(lp991
sS'iphone-extra-string'
p992
(lp993
sS'version-string'
p994
NsS'iphone-icon-high-res-ios7'
p995
NsS'ws8-certificate-end-date'
p996
NsS'nacl-skip-zip'
p997
NsS'tizen-so'
p998
(lp999
sS'wp8-tile-fliptemplate-small-image'
p1000
NsS'playbook-authorid'
p1001
NsS'iphone-signing-identity'
p1002
NsS'roku-persist-quota'
p1003
NsS'nds-bannertitle-fr'
p1004
NsS'ws8-distribution-pfx'
p1005
NsS'ws8-publisher-display-name'
p1006
NsS'brew-icon-small'
p1007
NsS'psp-dlgpic2'
p1008
NsS'psp-dlgpic0'
p1009
NsS'psp-pic0'
p1010
NsS'psp-pic1'
p1011
NsS'win32-pref-windowtitle'
p1012
NsS'psp-icon0'
p1013
NsS'psp-icon1'
p1014
NsS'ws81-identity-name'
p1015
NsS'winmobile-icon'
p1016
NsS'iphone-no-splash'
p1017
NsS'iphone-splash'
p1018
NsS'iphone-app-fonts'
p1019
NsS'wp8-ext-native-dll'
p1020
(lp1021
sS'wp81-splash-screen-image480x800'
p1022
NsS'ws81-distribution-cer'
p1023
NsS'iphone-backgroundmode-audio'
p1024
NsS'uiq3-icon2'
p1025
NsS'uiq3-icon3'
p1026
NsS'uiq3-icon1'
p1027
NsS'uiq3-icon1-format'
p1028
NsS'ws8-logo-image50x50'
p1029
NsS'iphone-icon-ipad-search'
p1030
NsS'symbian-run-on-install'
p1031
NsS'wp81-description'
p1032
NsS'ws81-publisher-display-name'
p1033
NsS'firefoxos-xulrunner'
p1034
NsS'symbian-soundrecordsupport'
p1035
NsS'nds-bannertitle-sp'
p1036
NsS'psp-producer'
p1037
NsS'iphone-apple-wwdr-cert'
p1038
NsS'android-icon-nonstandard'
p1039
NsS'win32-pref-processtitle'
p1040
NsS'nds-bannertitle-hn'
p1041
NsS'tizen-dist2-key'
p1042
NsS'brew-depends'
p1043
NsS'ws81-custom-manifest'
p1044
NsS'iphone-allow-launch-rotation'
p1045
NsS'iphone-icon-ipad-search-ios7'
p1046
NsS'brew-icon-medium'
p1047
NsS'iphone-bundle-url-name'
p1048
NsS'wp8-tile-fliptemplate-large-front-image'
p1049
NsS'tizen-dist2-CA-root-path'
p1050
NsS'ws81-description'
p1051
NsS'uiq3-icon3-format'
p1052
NsS'ws81-logo-image30x30'
p1053
NsS'win8-phone-extra-res'
p1054
(lp1055
sS'iphone-signing-host'
p1056
NsS'tizen-icon'
p1057
NsS'osx-info-plist'
p1058
NsS'symbian-icon1-format'
p1059
NsS'ws81-distribution-pfx'
p1060
NsS'win32-aux-dll'
p1061
(lp1062
sS'blackberry-authorid'
p1063
NsS'ws81-publisher-id'
p1064
NsS'win8-store-extra-res'
p1065
(lp1066
sS'wp8-description'
p1067
NsS'iphone-link-opts'
p1068
(lp1069
S'-Fc:/marmalade/7.8/platform_libs/iphone/amazon-ads-ios-sdk/third_party/Ads -framework AmazonAd'
p1070
aS'-weak_framework AdSupport -weak_framework CoreLocation -weak_framework SystemConfiguration'
p1071
aS'-weak_framework CoreTelephony -weak_framework MediaPlayer'
p1072
aS'-weak_framework EventKit -weak_framework EventKitUI'
p1073
asS'ws81-ext-sdk-ref'
p1074
(lp1075
sS'roku-splash-min-time'
p1076
NsS'wp8-tile-fliptemplate-medium-front-image'
p1077
NsS'iphone-disable-launch-images'
p1078
NsS'android-sdk-platform-version'
p1079
NsS'provider'
p1080
NsS'playbook-keystore'
p1081
NsS'tizen-appid'
p1082
NsS'wp8-extra-res'
p1083
(lp1084
sS'symbian-osexecsupport'
p1085
NsS'android-install-location'
p1086
NsS'nds-privatesavedatasize'
p1087
NsS'iphone-disable-testflight'
p1088
NsS'playbook-storepass'
p1089
NsS'android-icon-ldpi'
p1090
NsS'manufacturer'
p1091
NsS'itunes-artwork'
p1092
NsS'iphone-extra-sections'
p1093
NsS'ws81-product-name'
p1094
NsS'ws81-ext-native-dll'
p1095
(lp1096
sS'ws8-extra-pri'
p1097
(lp1098
sS'wp8-product-id'
p1099
NsS'ws8-logo-image30x30'
p1100
NsS'wp8-ext-managed-dll'
p1101
(lp1102
sS'iphone-splashscreen-landscape'
p1103
NsS'symbian-maxheapsize'
p1104
NsS'android-extra-packages'
p1105
(lp1106
sS'priv-sign-key'
p1107
NsS'networking'
p1108
NsS'android-icon'
p1109
NsS'iphone-icon-settings'
p1110
NsS'nacl-manifest'
p1111
NsS'wp81-phone-product-id'
p1112
NsS'firefoxos-icon-60X60'
p1113
NsS'iphone-distribution-cert'
p1114
NsS'android_extra_strings'
p1115
NsS'nds-bannertitle-en'
p1116
NsS'blackberry-permissions-record-audio'
p1117
NsS'android-so'
p1118
(lp1119
S'c:/marmalade/7.8/extensions/s3eamazonads/lib/android/libs3eAmazonAds.so'
p1120
asS'wp8-higher-mem'
p1121
NsS'wp8-ext-sdk-ref'
p1122
(lp1123
sS'wp8-fast-resume-mode'
p1124
NsS'roku-splash-screen-hd'
p1125
NsS'iphone-bundle-url-schemes'
p1126
NsS'roku-screensaver-private'
p1127
NsS'osx-extra-res'
p1128
(lp1129
sS'ws81-extra-res'
p1130
(lp1131
sS'playbook-icon'
p1132
NsS'uid'
p1133
NsS'pkguid-as-uid'
p1134
NsS'wp81-ext-native-dll'
p1135
(lp1136
sS'tizen-dist1-password'
p1137
NsS'roku-screensaver-title'
p1138
NsS'osx-minimum-osx-version'
p1139
NsS'symbian-cert'
p1140
NsS'iphone-icon'
p1141
NsS'ws81-ext-capabilities'
p1142
(lp1143
sS'ws8-distribution-cer'
p1144
NsS'playbook-access-shared'
p1145
NsS'iphone-icon-ipad-high-res-ios7'
p1146
NsS'iphone-link-libs'
p1147
(lp1148
sS'wp8-exclude-wvga'
p1149
NsS'assets'
p1150
NsS'wp8-tile-fliptemplate-large-back-image'
p1151
NsS'wp8-custom-manifest-fill'
p1152
NsS'pub-sign-key'
p1153
NsS'android-extra-strings'
p1154
(lp1155
sS'tizen-author-CA-path'
p1156
Nssg366
g644
sbssS'platform'
p1157
S'S3E'
p1158
sg73
S'1.0'
p1159
sS'arcade_platform'
p1160
g4
sS'extensions'
p1161
(dp1162
sS'source_groups_tree'
p1163
(dp1164
S'(libpng)'
p1165
(dp1166
S'h'
p1167
(dp1168
S'c:/marmalade/7.8/modules/third_party/libpng/h/pngconf.h'
p1169
(lp1170
I1
a(dp1171
asS'c:/marmalade/7.8/modules/third_party/libpng/h/png.h'
p1172
(lp1173
I1
ag1171
assS'c:/marmalade/7.8/modules/third_party/libpng/libpng.mkf'
p1174
(lp1175
I1
a(dp1176
assS'(amazon-ads-android-sdk)'
p1177
(dp1178
S'c:/marmalade/7.8/platform_libs/android/amazon-ads-android-sdk/amazon-ads-android-sdk.mkf'
p1179
(lp1180
I1
a(dp1181
assS'(tiniconv)'
p1182
(dp1183
S'c:/marmalade/7.8/modules/third_party/tiniconv/source/tiniconv.h'
p1184
(lp1185
I1
a(dp1186
asS'c:/marmalade/7.8/modules/third_party/tiniconv/source/tiniconv_int.h'
p1187
(lp1188
I1
ag1186
asS'c:/marmalade/7.8/modules/third_party/tiniconv/tiniconv.mkf'
p1189
(lp1190
I1
a(dp1191
assS'(amazon-ads-ios-sdk)'
p1192
(dp1193
S'c:/marmalade/7.8/platform_libs/iphone/amazon-ads-ios-sdk/amazon-ads-ios-sdk.mkf'
p1194
(lp1195
I1
a(dp1196
assS'c:/Users/Jordan/Documents/GitHub/words/words.cpp'
p1197
(lp1198
I1
a(dp1199
asS'c:/Users/Jordan/Documents/GitHub/words/build_words_vc12x/Dictionary.cpp'
p1200
(lp1201
I1
ag1199
asS'Extensions'
p1202
(dp1203
S's3eAmazonAds'
p1204
(dp1205
S'interface'
p1206
(dp1207
S'c:/marmalade/7.8/extensions/s3eamazonads/interface/s3eAmazonAds_interface.cpp'
p1208
(lp1209
I1
a(dp1210
asS'c:/marmalade/7.8/extensions/s3eamazonads/interface/s3eAmazonAds.defines.txt'
p1211
(lp1212
I1
ag1210
assS'c:/marmalade/7.8/extensions/s3eamazonads/s3eamazonads.mkf'
p1213
(lp1214
I1
a(dp1215
asS'c:/marmalade/7.8/extensions/s3eamazonads/h/s3eAmazonAds.h'
p1216
(lp1217
I1
ag1210
assS'PVRTexTool'
p1218
(dp1219
S'interface'
p1220
(dp1221
S'c:/marmalade/7.8/extensions/pvrtextool/interface/PVRTexTool.defines.txt'
p1222
(lp1223
I1
a(dp1224
asS'c:/marmalade/7.8/extensions/pvrtextool/interface/PVRTexTool_interface.cpp'
p1225
(lp1226
I1
ag1224
assS'c:/marmalade/7.8/extensions/pvrtextool/h/PVRTexTool.h'
p1227
(lp1228
I1
ag1224
asS'c:/marmalade/7.8/extensions/pvrtextool/pvrtextool.mkf'
p1229
(lp1230
I1
a(dp1231
asssS'(s3e-default)'
p1232
(dp1233
S'c:/marmalade/7.8/s3e/s3e-default.mkf'
p1234
(lp1235
I1
a(dp1236
assS"'Marmalade Studio'"
p1237
(dp1238
S'iw2dscenegraph'
p1239
(dp1240
S'c:/marmalade/7.8/modules/iw2dscenegraph/source/Iw2DSceneGraph.cpp'
p1241
(lp1242
I1
a(dp1243
asS'c:/marmalade/7.8/modules/iw2dscenegraph/docs/iw2dscenegraph.defines.txt'
p1244
(lp1245
I1
ag1243
asS'c:/marmalade/7.8/modules/iw2dscenegraph/iw2dscenegraph.mkf'
p1246
(lp1247
I1
a(dp1248
asS'c:/marmalade/7.8/modules/iw2dscenegraph/h/Iw2DSceneGraph.h'
p1249
(lp1250
I1
ag1243
assS'iwgl'
p1251
(dp1252
S'c:/marmalade/7.8/modules/iwgl/h/IwGL.h'
p1253
(lp1254
I1
a(dp1255
asS'c:/marmalade/7.8/modules/iwgl/iwgl.mkf'
p1256
(lp1257
I1
a(dp1258
asS'c:/marmalade/7.8/modules/iwgl/docs/iwgl.config.txt'
p1259
(lp1260
I1
ag1255
asS'c:/marmalade/7.8/modules/iwgl/h/IwGLExt.h'
p1261
(lp1262
I1
ag1255
assS'iw2d'
p1263
(dp1264
S'c:/marmalade/7.8/modules/iw2d/docs/iw2d.config.txt'
p1265
(lp1266
I1
a(dp1267
asS'c:/marmalade/7.8/modules/iw2d/iw2d.mkf'
p1268
(lp1269
I1
a(dp1270
asS'c:/marmalade/7.8/modules/iw2d/docs/iw2d_public.defines.txt'
p1271
(lp1272
I1
ag1267
asS'c:/marmalade/7.8/modules/iw2d/h/Iw2D.h'
p1273
(lp1274
I1
ag1267
assS'iwgxfont'
p1275
(dp1276
S'c:/marmalade/7.8/modules/iwgxfont/h/IwGxFontState.h'
p1277
(lp1278
I1
a(dp1279
asS'c:/marmalade/7.8/modules/iwgxfont/iwgxfont.mkf'
p1280
(lp1281
I1
a(dp1282
asS'c:/marmalade/7.8/modules/iwgxfont/h/IwGxFontTypes.h'
p1283
(lp1284
I1
ag1279
asS'c:/marmalade/7.8/modules/iwgxfont/docs/iwgxfont_public.defines.txt'
p1285
(lp1286
I1
ag1279
asS'c:/marmalade/7.8/modules/iwgxfont/h/IwGxFont.h'
p1287
(lp1288
I1
ag1279
asS'c:/marmalade/7.8/modules/iwgxfont/h/IwGxFontPreparedData.h'
p1289
(lp1290
I1
ag1279
asS'c:/marmalade/7.8/modules/iwgxfont/h/IwGxFontGlyph.h'
p1291
(lp1292
I1
ag1279
asS'c:/marmalade/7.8/modules/iwgxfont/docs/iwgxfont.config.txt'
p1293
(lp1294
I1
ag1279
asS'c:/marmalade/7.8/modules/iwgxfont/h/IwGxFontContainer.h'
p1295
(lp1296
I1
ag1279
assS'iwgeom'
p1297
(dp1298
S'c:/marmalade/7.8/modules/iwgeom/h/IwGeomQuat.h.tpl'
p1299
(lp1300
I1
a(dp1301
asS'c:/marmalade/7.8/modules/iwgeom/h/IwGeomSphere.h'
p1302
(lp1303
I1
ag1301
asS'c:/marmalade/7.8/modules/iwgeom/h/IwGeomFMat2D.h'
p1304
(lp1305
I1
ag1301
asS'c:/marmalade/7.8/modules/iwgeom/h/IwGeomPlane.h'
p1306
(lp1307
I1
ag1301
asS'c:/marmalade/7.8/modules/iwgeom/h/IwGeomMat2D.h'
p1308
(lp1309
I1
ag1301
asS'c:/marmalade/7.8/modules/iwgeom/h/IwGeomSVec3.h'
p1310
(lp1311
I1
ag1301
asS'c:/marmalade/7.8/modules/iwgeom/h/IwGeomFVec3.h'
p1312
(lp1313
I1
ag1301
asS'c:/marmalade/7.8/modules/iwgeom/h/IwGeomFVec2.h'
p1314
(lp1315
I1
ag1301
asS'c:/marmalade/7.8/modules/iwgeom/h/IwGeomSVec4.h'
p1316
(lp1317
I1
ag1301
asS'c:/marmalade/7.8/modules/iwgeom/h/IwGeomIntersect.h'
p1318
(lp1319
I1
ag1301
asS'c:/marmalade/7.8/modules/iwgeom/h/IwGeomSVec2.h'
p1320
(lp1321
I1
ag1301
asS'c:/marmalade/7.8/modules/iwgeom/h/IwGeomFIntersect.h'
p1322
(lp1323
I1
ag1301
asS'c:/marmalade/7.8/modules/iwgeom/iwgeom.mkf'
p1324
(lp1325
I1
a(dp1326
asS'c:/marmalade/7.8/modules/iwgeom/h/IwGeomSQuat.h'
p1327
(lp1328
I1
ag1301
asS'c:/marmalade/7.8/modules/iwgeom/h/IwGeomMat.h'
p1329
(lp1330
I1
ag1301
asS'c:/marmalade/7.8/modules/iwgeom/h/IwGeomSqrt.h'
p1331
(lp1332
I1
ag1301
asS'c:/marmalade/7.8/modules/iwgeom/h/IwGeomLegacy.h'
p1333
(lp1334
I1
ag1301
asS'c:/marmalade/7.8/modules/iwgeom/h/IwGeomVec4.h'
p1335
(lp1336
I1
ag1301
asS'c:/marmalade/7.8/modules/iwgeom/h/IwGeomMenu.h'
p1337
(lp1338
I1
ag1301
asS'c:/marmalade/7.8/modules/iwgeom/h/IwGeom.h'
p1339
(lp1340
I1
ag1301
asS'c:/marmalade/7.8/modules/iwgeom/h/IwGeomFBBox.h'
p1341
(lp1342
I1
ag1301
asS'c:/marmalade/7.8/modules/iwgeom/h/IwGeomFPlane.h'
p1343
(lp1344
I1
ag1301
asS'c:/marmalade/7.8/modules/iwgeom/h/IwGeomQuat.h'
p1345
(lp1346
I1
ag1301
asS'c:/marmalade/7.8/modules/iwgeom/h/IwGeomVec2.h'
p1347
(lp1348
I1
ag1301
asS'c:/marmalade/7.8/modules/iwgeom/h/IwGeomFMat.h'
p1349
(lp1350
I1
ag1301
asS'c:/marmalade/7.8/modules/iwgeom/h/IwGeomMat.h.tpl'
p1351
(lp1352
I1
ag1301
asS'c:/marmalade/7.8/modules/iwgeom/h/IwGeomVec3.h'
p1353
(lp1354
I1
ag1301
asS'c:/marmalade/7.8/modules/iwgeom/h/IwGeomFQuat.h'
p1355
(lp1356
I1
ag1301
asS'c:/marmalade/7.8/modules/iwgeom/h/IwGeomCore.h'
p1357
(lp1358
I1
ag1301
asS'c:/marmalade/7.8/modules/iwgeom/h/IwGeomBBox.h'
p1359
(lp1360
I1
ag1301
asS'c:/marmalade/7.8/modules/iwgeom/h/IwGeomFVec4.h'
p1361
(lp1362
I1
ag1301
asS'c:/marmalade/7.8/modules/iwgeom/h/IwGeomVec.h.tpl'
p1363
(lp1364
I1
ag1301
asS'c:/marmalade/7.8/modules/iwgeom/h/IwGeomFSphere.h'
p1365
(lp1366
I1
ag1301
asS'c:/marmalade/7.8/modules/iwgeom/h/IwGeomVec.h'
p1367
(lp1368
I1
ag1301
asS'c:/marmalade/7.8/modules/iwgeom/docs/iwgeom.config.txt'
p1369
(lp1370
I1
ag1301
asS'c:/marmalade/7.8/modules/iwgeom/h/IwGeomMat2D.h.tpl'
p1371
(lp1372
I1
ag1301
assS'iwresmanager'
p1373
(dp1374
S'c:/marmalade/7.8/modules/iwresmanager/h/IwResHandler.h'
p1375
(lp1376
I1
a(dp1377
asS'c:/marmalade/7.8/modules/iwresmanager/iwresmanager.mkf'
p1378
(lp1379
I1
a(dp1380
asS'c:/marmalade/7.8/modules/iwresmanager/h/IwResManager.h'
p1381
(lp1382
I1
ag1377
asS'c:/marmalade/7.8/modules/iwresmanager/h/IwResHandlerImage.h'
p1383
(lp1384
I1
ag1377
asS'c:/marmalade/7.8/modules/iwresmanager/h/IwResSerialise.h'
p1385
(lp1386
I1
ag1377
asS'c:/marmalade/7.8/modules/iwresmanager/h/IwResHandlerITX.h'
p1387
(lp1388
I1
ag1377
asS'c:/marmalade/7.8/modules/iwresmanager/h/IwResGroup.h'
p1389
(lp1390
I1
ag1377
asS'c:/marmalade/7.8/modules/iwresmanager/h/IwResManagerClass.h'
p1391
(lp1392
I1
ag1377
asS'c:/marmalade/7.8/modules/iwresmanager/h/IwResHandlerGROUP.h'
p1393
(lp1394
I1
ag1377
asS'c:/marmalade/7.8/modules/iwresmanager/docs/iwresmanager.config.txt'
p1395
(lp1396
I1
ag1377
assS'iwgx'
p1397
(dp1398
S'c:/marmalade/7.8/modules/iwgx/h/IwGxError.h'
p1399
(lp1400
I1
a(dp1401
asS'c:/marmalade/7.8/modules/iwgx/h/IwDebugPrim.h'
p1402
(lp1403
I1
ag1401
asS'c:/marmalade/7.8/modules/iwgx/h/IwGxPrint.h'
p1404
(lp1405
I1
ag1401
asS'c:/marmalade/7.8/modules/iwgx/h/IwGxStream.h'
p1406
(lp1407
I1
ag1401
asS'c:/marmalade/7.8/modules/iwgx/h/IwGxTypes.h'
p1408
(lp1409
I1
ag1401
asS'c:/marmalade/7.8/modules/iwgx/h/IwGxFuncTable.h'
p1410
(lp1411
I1
ag1401
asS'c:/marmalade/7.8/modules/iwgx/iwgx.mkf'
p1412
(lp1413
I1
a(dp1414
asS'c:/marmalade/7.8/modules/iwgx/h/IwGxSurface.h'
p1415
(lp1416
I1
ag1401
asS'c:/marmalade/7.8/modules/iwgx/h/IwGx.h'
p1417
(lp1418
I1
ag1401
asS'c:/marmalade/7.8/modules/iwgx/h/IwGxTransformSW.h'
p1419
(lp1420
I1
ag1401
asS'c:/marmalade/7.8/modules/iwgx/h/IwGxDebug.h'
p1421
(lp1422
I1
ag1401
asS'c:/marmalade/7.8/modules/iwgx/h/IwMatAnim.h'
p1423
(lp1424
I1
ag1401
asS'c:/marmalade/7.8/modules/iwgx/h/IwTPage.h'
p1425
(lp1426
I1
ag1401
asS'c:/marmalade/7.8/modules/iwgx/h/IwTexture.h'
p1427
(lp1428
I1
ag1401
asS'c:/marmalade/7.8/modules/iwgx/docs/iwgx.config.txt'
p1429
(lp1430
I1
ag1401
asS'c:/marmalade/7.8/modules/iwgx/h/IwClip.inl'
p1431
(lp1432
I1
ag1401
asS'c:/marmalade/7.8/modules/iwgx/h/IwColour.h'
p1433
(lp1434
I1
ag1401
asS'c:/marmalade/7.8/modules/iwgx/h/IwClip.h'
p1435
(lp1436
I1
ag1401
asS'c:/marmalade/7.8/modules/iwgx/h/IwMaterial.h'
p1437
(lp1438
I1
ag1401
asS'c:/marmalade/7.8/modules/iwgx/h/IwFColour.h'
p1439
(lp1440
I1
ag1401
asS'c:/marmalade/7.8/modules/iwgx/h/IwResHandlerMTL.h'
p1441
(lp1442
I1
ag1401
asS'c:/marmalade/7.8/modules/iwgx/h/IwGxMetrics.h'
p1443
(lp1444
I1
ag1401
asS'c:/marmalade/7.8/modules/iwgx/h/IwGxState.h'
p1445
(lp1446
I1
ag1401
asS'c:/marmalade/7.8/modules/iwgx/docs/iwgx_public.defines.txt'
p1447
(lp1448
I1
ag1401
asS'c:/marmalade/7.8/modules/iwgx/h/IwGxShaderTechnique.h'
p1449
(lp1450
I1
ag1401
assS'iw2dscenegraphcore'
p1451
(dp1452
S'c:/marmalade/7.8/modules/iw2dscenegraphcore/h/Iw2DSceneGraphCore.h'
p1453
(lp1454
I1
a(dp1455
asS'c:/marmalade/7.8/modules/iw2dscenegraphcore/iw2dscenegraphcore.mkf'
p1456
(lp1457
I1
a(dp1458
asS'c:/marmalade/7.8/modules/iw2dscenegraphcore/source/Iw2DSceneGraphCore.cpp'
p1459
(lp1460
I1
ag1455
assS'iwutil'
p1461
(dp1462
S'c:/marmalade/7.8/modules/iwutil/h/IwSerialise.h'
p1463
(lp1464
I1
a(dp1465
asS'c:/marmalade/7.8/modules/iwutil/h/IwTextParser.h'
p1466
(lp1467
I1
ag1465
asS'c:/marmalade/7.8/modules/iwutil/h/IwMenu.h'
p1468
(lp1469
I1
ag1465
asS'c:/marmalade/7.8/modules/iwutil/h/IwDivTable.h'
p1470
(lp1471
I1
ag1465
asS'c:/marmalade/7.8/modules/iwutil/h/IwFile.h'
p1472
(lp1473
I1
ag1465
asS'c:/marmalade/7.8/modules/iwutil/h/IwCopyingPtr.h'
p1474
(lp1475
I1
ag1465
asS'c:/marmalade/7.8/modules/iwutil/h/IwFibre.h'
p1476
(lp1477
I1
ag1465
asS'c:/marmalade/7.8/modules/iwutil/h/IwImage.h'
p1478
(lp1479
I1
ag1465
asS'c:/marmalade/7.8/modules/iwutil/h/IwMath.h'
p1480
(lp1481
I1
ag1465
asS'c:/marmalade/7.8/modules/iwutil/h/IwClassFactory.h'
p1482
(lp1483
I1
ag1465
asS'c:/marmalade/7.8/modules/iwutil/h/IwRuntime.h'
p1484
(lp1485
I1
ag1465
asS'c:/marmalade/7.8/modules/iwutil/h/IwTextParserITX.h'
p1486
(lp1487
I1
ag1465
asS'c:/marmalade/7.8/modules/iwutil/h/IwOptimiseThumb.h'
p1488
(lp1489
I1
ag1465
asS'c:/marmalade/7.8/modules/iwutil/h/IwList.h'
p1490
(lp1491
I1
ag1465
asS'c:/marmalade/7.8/modules/iwutil/h/IwUtilInitTerm.h'
p1492
(lp1493
I1
ag1465
asS'c:/marmalade/7.8/modules/iwutil/h/IwMemBucket.h'
p1494
(lp1495
I1
ag1465
asS'c:/marmalade/7.8/modules/iwutil/h/IwTextParseable.h'
p1496
(lp1497
I1
ag1465
asS'c:/marmalade/7.8/modules/iwutil/h/IwEvent.h'
p1498
(lp1499
I1
ag1465
asS'c:/marmalade/7.8/modules/iwutil/iwutil.mkf'
p1500
(lp1501
I1
a(dp1502
asS'c:/marmalade/7.8/modules/iwutil/h/IwBuffer.h'
p1503
(lp1504
I1
ag1465
asS'c:/marmalade/7.8/modules/iwutil/h/IwRandom.h'
p1505
(lp1506
I1
ag1465
asS'c:/marmalade/7.8/modules/iwutil/h/IwMemory.h'
p1507
(lp1508
I1
ag1465
asS'c:/marmalade/7.8/modules/iwutil/h/IwUtil.h'
p1509
(lp1510
I1
ag1465
asS'c:/marmalade/7.8/modules/iwutil/h/IwAllocator.h'
p1511
(lp1512
I1
ag1465
asS'c:/marmalade/7.8/modules/iwutil/h/IwOptimiseSpeed.h'
p1513
(lp1514
I1
ag1465
asS'c:/marmalade/7.8/modules/iwutil/h/IwManagedList.h'
p1515
(lp1516
I1
ag1465
asS'c:/marmalade/7.8/modules/iwutil/h/IwHashString.h'
p1517
(lp1518
I1
ag1465
asS'c:/marmalade/7.8/modules/iwutil/h/IwTypes.h'
p1519
(lp1520
I1
ag1465
asS'c:/marmalade/7.8/modules/iwutil/h/IwKeymap.h'
p1521
(lp1522
I1
ag1465
asS'c:/marmalade/7.8/modules/iwutil/h/IwSingleton.h'
p1523
(lp1524
I1
ag1465
asS'c:/marmalade/7.8/modules/iwutil/h/IwProfileMenu.h'
p1525
(lp1526
I1
ag1465
asS'c:/marmalade/7.8/modules/iwutil/h/IwString.h'
p1527
(lp1528
I1
ag1465
asS'c:/marmalade/7.8/modules/iwutil/h/IwImageHelper.h'
p1529
(lp1530
I1
ag1465
asS'c:/marmalade/7.8/modules/iwutil/h/IwUncopyable.h'
p1531
(lp1532
I1
ag1465
asS'c:/marmalade/7.8/modules/iwutil/h/IwArray.h'
p1533
(lp1534
I1
ag1465
asS'c:/marmalade/7.8/modules/iwutil/h/IwDivide.h'
p1535
(lp1536
I1
ag1465
asS'c:/marmalade/7.8/modules/iwutil/h/IwVariableBitField.h'
p1537
(lp1538
I1
ag1465
asS'c:/marmalade/7.8/modules/iwutil/h/IwMemBucketHelpers.h'
p1539
(lp1540
I1
ag1465
asS'c:/marmalade/7.8/modules/iwutil/h/IwOptimiseARM.h'
p1541
(lp1542
I1
ag1465
asS'c:/marmalade/7.8/modules/iwutil/docs/iwutil.config.txt'
p1543
(lp1544
I1
ag1465
asS'c:/marmalade/7.8/modules/iwutil/h/IwCore.h'
p1545
(lp1546
I1
ag1465
asS'c:/marmalade/7.8/modules/iwutil/h/IwPath.h'
p1547
(lp1548
I1
ag1465
asS'c:/marmalade/7.8/modules/iwutil/h/IwUTF8.h'
p1549
(lp1550
I1
ag1465
asS'c:/marmalade/7.8/modules/iwutil/h/IwChar.h'
p1551
(lp1552
I1
ag1465
asS'c:/marmalade/7.8/modules/iwutil/h/IwAutoFile.h'
p1553
(lp1554
I1
ag1465
asS'c:/marmalade/7.8/modules/iwutil/h/IwManaged.h'
p1555
(lp1556
I1
ag1465
asS'c:/marmalade/7.8/modules/iwutil/h/IwOptimiseSize.h'
p1557
(lp1558
I1
ag1465
asS'c:/marmalade/7.8/modules/iwutil/h/IwDebug.h'
p1559
(lp1560
I1
ag1465
asS'c:/marmalade/7.8/modules/iwutil/h/IwResource.h'
p1561
(lp1562
I1
ag1465
asS'c:/marmalade/7.8/modules/iwutil/h/IwMemManagerDL.h'
p1563
(lp1564
I1
ag1465
asssS'c:/Users/Jordan/Documents/GitHub/words/build_words_vc12x/Dictionary.h'
p1565
(lp1566
I1
ag1199
asS'(iwtween)'
p1567
(dp1568
S'c:/marmalade/7.8/modules/iwtween/h/IwTween.h'
p1569
(lp1570
I1
a(dp1571
asS'c:/marmalade/7.8/modules/iwtween/iwtween.mkf'
p1572
(lp1573
I1
a(dp1574
asS'c:/marmalade/7.8/modules/iwtween/source/IwTween.cpp'
p1575
(lp1576
I1
ag1571
assS'(zlib)'
p1577
(dp1578
g1167
(dp1579
S'c:/marmalade/7.8/modules/third_party/zlib/h/zlib.h'
p1580
(lp1581
I1
a(dp1582
asS'c:/marmalade/7.8/modules/third_party/zlib/h/zconf.h'
p1583
(lp1584
I1
ag1582
assS'c:/marmalade/7.8/modules/third_party/zlib/zlib.mkf'
p1585
(lp1586
I1
a(dp1587
assS'(libjpeg)'
p1588
(dp1589
g1167
(dp1590
S'c:/marmalade/7.8/modules/third_party/libjpeg/h/jdhuff.h'
p1591
(lp1592
I1
a(dp1593
asS'c:/marmalade/7.8/modules/third_party/libjpeg/h/jversion.h'
p1594
(lp1595
I1
ag1593
asS'c:/marmalade/7.8/modules/third_party/libjpeg/h/jconfig.h'
p1596
(lp1597
I1
ag1593
asS'c:/marmalade/7.8/modules/third_party/libjpeg/h/jerror.h'
p1598
(lp1599
I1
ag1593
asS'c:/marmalade/7.8/modules/third_party/libjpeg/h/cdjpeg.h'
p1600
(lp1601
I1
ag1593
asS'c:/marmalade/7.8/modules/third_party/libjpeg/h/jchuff.h'
p1602
(lp1603
I1
ag1593
asS'c:/marmalade/7.8/modules/third_party/libjpeg/h/cderror.h'
p1604
(lp1605
I1
ag1593
asS'c:/marmalade/7.8/modules/third_party/libjpeg/h/jpegint.h'
p1606
(lp1607
I1
ag1593
asS'c:/marmalade/7.8/modules/third_party/libjpeg/h/transupp.h'
p1608
(lp1609
I1
ag1593
asS'c:/marmalade/7.8/modules/third_party/libjpeg/h/jmemsys.h'
p1610
(lp1611
I1
ag1593
asS'c:/marmalade/7.8/modules/third_party/libjpeg/h/jinclude.h'
p1612
(lp1613
I1
ag1593
asS'c:/marmalade/7.8/modules/third_party/libjpeg/h/jmorecfg.h'
p1614
(lp1615
I1
ag1593
asS'c:/marmalade/7.8/modules/third_party/libjpeg/h/jpeglib.h'
p1616
(lp1617
I1
ag1593
asS'c:/marmalade/7.8/modules/third_party/libjpeg/h/jdct.h'
p1618
(lp1619
I1
ag1593
assS'c:/marmalade/7.8/modules/third_party/libjpeg/libjpeg.mkf'
p1620
(lp1621
I1
a(dp1622
asssS'files'
p1623
(dp1624
S'IwGxFontPreparedData.h'
p1625
g340
(cmkb_main
File
p1626
g342
Ntp1627
Rp1628
(dp1629
S'flags'
p1630
g1279
sS'group'
p1631
(lp1632
S"'Marmalade Studio'"
p1633
ag1275
asg366
g1289
sbsS'iterator'
p1634
g340
(g1626
g342
Ntp1635
Rp1636
(dp1637
g1630
(dp1638
sg1631
(lp1639
S"'Marmalade System (S3E)'"
p1640
aS'stdc headers'
p1641
aS'c++'
p1642
asg366
S'c:/marmalade/7.8/s3e/h/std/c++/iterator'
p1643
sbsS'IwGL.h'
p1644
g340
(g1626
g342
Ntp1645
Rp1646
(dp1647
g1630
g1255
sg1631
(lp1648
S"'Marmalade Studio'"
p1649
ag1251
asg366
g1253
sbsS's3e.h'
p1650
g340
(g1626
g342
Ntp1651
Rp1652
(dp1653
g1630
g1638
sg1631
(lp1654
g1640
asg366
S'c:/marmalade/7.8/s3e/h/s3e.h'
p1655
sbsS'errno.h'
p1656
g340
(g1626
g342
Ntp1657
Rp1658
(dp1659
g1630
g1638
sg1631
(lp1660
g1640
aS'stdc headers'
p1661
asg366
S'c:/marmalade/7.8/s3e/h/std/errno.h'
p1662
sbsS'IwSingleton.h'
p1663
g340
(g1626
g342
Ntp1664
Rp1665
(dp1666
g1630
g1465
sg1631
(lp1667
S"'Marmalade Studio'"
p1668
ag1461
asg366
g1523
sbsS'dlfcn.h'
p1669
g340
(g1626
g342
Ntp1670
Rp1671
(dp1672
g1630
g1638
sg1631
g1660
sg366
S'c:/marmalade/7.8/s3e/h/std/dlfcn.h'
p1673
sbsS'stdio_streambuf'
p1674
g340
(g1626
g342
Ntp1675
Rp1676
(dp1677
g1630
g1638
sg1631
g1639
sg366
S'c:/marmalade/7.8/s3e/h/std/c++/stdio_streambuf'
p1678
sbsS'sched.h'
p1679
g340
(g1626
g342
Ntp1680
Rp1681
(dp1682
g1630
g1638
sg1631
g1660
sg366
S'c:/marmalade/7.8/s3e/h/std/sched.h'
p1683
sbsS'IwGeomFMat2D.h'
p1684
g340
(g1626
g342
Ntp1685
Rp1686
(dp1687
g1630
g1301
sg1631
(lp1688
S"'Marmalade Studio'"
p1689
ag1297
asg366
g1304
sbsS'cassert'
p1690
g340
(g1626
g342
Ntp1691
Rp1692
(dp1693
g1630
g1638
sg1631
g1639
sg366
S'c:/marmalade/7.8/s3e/h/std/c++/cassert'
p1694
sbsS'grp.h'
p1695
g340
(g1626
g342
Ntp1696
Rp1697
(dp1698
g1630
g1638
sg1631
g1660
sg366
S'c:/marmalade/7.8/s3e/h/std/grp.h'
p1699
sbsS'list'
p1700
g340
(g1626
g342
Ntp1701
Rp1702
(dp1703
g1630
g1638
sg1631
g1639
sg366
S'c:/marmalade/7.8/s3e/h/std/c++/list'
p1704
sbsS'IwGeomMat.h.tpl'
p1705
g340
(g1626
g342
Ntp1706
Rp1707
(dp1708
g1630
g1301
sg1631
g1688
sg366
g1351
sbsS'istream'
p1709
g340
(g1626
g342
Ntp1710
Rp1711
(dp1712
g1630
g1638
sg1631
g1639
sg366
S'c:/marmalade/7.8/s3e/h/std/c++/istream'
p1713
sbsS'jpeglib.h'
p1714
g340
(g1626
g342
Ntp1715
Rp1716
(dp1717
g1630
g1593
sg1631
(lp1718
g1588
ag1167
asg366
g1616
sbsS'iw2d_public.defines.txt'
p1719
g340
(g1626
g342
Ntp1720
Rp1721
(dp1722
g1630
g1267
sg1631
(lp1723
S"'Marmalade Studio'"
p1724
ag1263
asg366
g1271
sbsS'iostream.h'
p1725
g340
(g1626
g342
Ntp1726
Rp1727
(dp1728
g1630
g1638
sg1631
g1639
sg366
S'c:/marmalade/7.8/s3e/h/std/c++/iostream.h'
p1729
sbsS'string'
p1730
g340
(g1626
g342
Ntp1731
Rp1732
(dp1733
g1630
g1638
sg1631
g1639
sg366
S'c:/marmalade/7.8/s3e/h/std/c++/string'
p1734
sbsS'IwMemory.h'
p1735
g340
(g1626
g342
Ntp1736
Rp1737
(dp1738
g1630
g1465
sg1631
g1667
sg366
g1507
sbsS'IwGeomPlane.h'
p1739
g340
(g1626
g342
Ntp1740
Rp1741
(dp1742
g1630
g1301
sg1631
g1688
sg366
g1306
sbsS'iw2d.config.txt'
p1743
g340
(g1626
g342
Ntp1744
Rp1745
(dp1746
g1630
g1267
sg1631
g1723
sg366
g1265
sbsS'iomanip'
p1747
g340
(g1626
g342
Ntp1748
Rp1749
(dp1750
g1630
g1638
sg1631
g1639
sg366
S'c:/marmalade/7.8/s3e/h/std/c++/iomanip'
p1751
sbsS'iwgeom.mkf'
p1752
g340
(g1626
g342
Ntp1753
Rp1754
(dp1755
g1630
g1326
sg1631
g1688
sg366
g1324
sbsS'IwGxError.h'
p1756
g340
(g1626
g342
Ntp1757
Rp1758
(dp1759
g1630
g1401
sg1631
(lp1760
S"'Marmalade Studio'"
p1761
ag1397
asg366
g1399
sbsS'IwGeom.h'
p1762
g340
(g1626
g342
Ntp1763
Rp1764
(dp1765
g1630
g1301
sg1631
g1688
sg366
g1339
sbsS'IwGeomVec4.h'
p1766
g340
(g1626
g342
Ntp1767
Rp1768
(dp1769
g1630
g1301
sg1631
g1688
sg366
g1335
sbsS'dir.h'
p1770
g340
(g1626
g342
Ntp1771
Rp1772
(dp1773
g1630
g1638
sg1631
(lp1774
g1640
aS'stdc headers'
p1775
aS'sys'
p1776
asg366
S'c:/marmalade/7.8/s3e/h/std/sys/dir.h'
p1777
sbsS'locale.h'
p1778
g340
(g1626
g342
Ntp1779
Rp1780
(dp1781
g1630
g1638
sg1631
g1660
sg366
S'c:/marmalade/7.8/s3e/h/std/locale.h'
p1782
sbsS'vector'
p1783
g340
(g1626
g342
Ntp1784
Rp1785
(dp1786
g1630
g1638
sg1631
g1639
sg366
S'c:/marmalade/7.8/s3e/h/std/c++/vector'
p1787
sbsS'IwManaged.h'
p1788
g340
(g1626
g342
Ntp1789
Rp1790
(dp1791
g1630
g1465
sg1631
g1667
sg366
g1555
sbsS's3eCompass.h'
p1792
g340
(g1626
g342
Ntp1793
Rp1794
(dp1795
g1630
g1638
sg1631
g1654
sg366
S'c:/marmalade/7.8/s3e/h/s3eCompass.h'
p1796
sbsS'cderror.h'
p1797
g340
(g1626
g342
Ntp1798
Rp1799
(dp1800
g1630
g1593
sg1631
g1718
sg366
g1604
sbsS'climits'
p1801
g340
(g1626
g342
Ntp1802
Rp1803
(dp1804
g1630
g1638
sg1631
g1639
sg366
S'c:/marmalade/7.8/s3e/h/std/c++/climits'
p1805
sbsS's3eVibra.h'
p1806
g340
(g1626
g342
Ntp1807
Rp1808
(dp1809
g1630
g1638
sg1631
g1654
sg366
S'c:/marmalade/7.8/s3e/h/s3eVibra.h'
p1810
sbsS'jversion.h'
p1811
g340
(g1626
g342
Ntp1812
Rp1813
(dp1814
g1630
g1593
sg1631
g1718
sg366
g1594
sbsS'fnmatch.h'
p1815
g340
(g1626
g342
Ntp1816
Rp1817
(dp1818
g1630
g1638
sg1631
g1660
sg366
S'c:/marmalade/7.8/s3e/h/std/fnmatch.h'
p1819
sbsS'IwGxState.h'
p1820
g340
(g1626
g342
Ntp1821
Rp1822
(dp1823
g1630
g1401
sg1631
g1760
sg366
g1445
sbsS's3eAudio.h'
p1824
g340
(g1626
g342
Ntp1825
Rp1826
(dp1827
g1630
g1638
sg1631
g1654
sg366
S'c:/marmalade/7.8/s3e/h/s3eAudio.h'
p1828
sbsS's3eSurface.h'
p1829
g340
(g1626
g342
Ntp1830
Rp1831
(dp1832
g1630
g1638
sg1631
g1654
sg366
S'c:/marmalade/7.8/s3e/h/s3eSurface.h'
p1833
sbsS'new'
p1834
g340
(g1626
g342
Ntp1835
Rp1836
(dp1837
g1630
g1638
sg1631
g1639
sg366
S'c:/marmalade/7.8/s3e/h/std/c++/new'
p1838
sbsS's3eWindow.h'
p1839
g340
(g1626
g342
Ntp1840
Rp1841
(dp1842
g1630
g1638
sg1631
(lp1843
g1640
aS'Extensions'
p1844
asg366
S'c:/marmalade/7.8/s3e/h/ext/s3eWindow.h'
p1845
sbsS'IwBuffer.h'
p1846
g340
(g1626
g342
Ntp1847
Rp1848
(dp1849
g1630
g1465
sg1631
g1667
sg366
g1503
sbsS'IwGeomQuat.h.tpl'
p1850
g340
(g1626
g342
Ntp1851
Rp1852
(dp1853
g1630
g1301
sg1631
g1688
sg366
g1299
sbsS's3eOSExec.h'
p1854
g340
(g1626
g342
Ntp1855
Rp1856
(dp1857
g1630
g1638
sg1631
g1843
sg366
S'c:/marmalade/7.8/s3e/h/ext/s3eOSExec.h'
p1858
sbsS'IwGxTransformSW.h'
p1859
g340
(g1626
g342
Ntp1860
Rp1861
(dp1862
g1630
g1401
sg1631
g1760
sg366
g1419
sbsS'IwGxMetrics.h'
p1863
g340
(g1626
g342
Ntp1864
Rp1865
(dp1866
g1630
g1401
sg1631
g1760
sg366
g1443
sbsS'iwgxfont.config.txt'
p1867
g340
(g1626
g342
Ntp1868
Rp1869
(dp1870
g1630
g1279
sg1631
g1632
sg366
g1293
sbsS'gl2platform.h'
p1871
g340
(g1626
g342
Ntp1872
Rp1873
(dp1874
g1630
g1638
sg1631
(lp1875
g1640
aS'GL'
p1876
aS'GLES 2.0'
p1877
asg366
S'c:/marmalade/7.8/s3e/h/GLES2/gl2platform.h'
p1878
sbsS'iw2dscenegraph.defines.txt'
p1879
g340
(g1626
g342
Ntp1880
Rp1881
(dp1882
g1630
g1243
sg1631
(lp1883
S"'Marmalade Studio'"
p1884
ag1239
asg366
g1244
sbsS'queue'
p1885
g340
(g1626
g342
Ntp1886
Rp1887
(dp1888
g1630
g1638
sg1631
g1639
sg366
S'c:/marmalade/7.8/s3e/h/std/c++/queue'
p1889
sbsS'time_1.h'
p1890
g340
(g1626
g342
Ntp1891
Rp1892
(dp1893
g1630
g1638
sg1631
g1774
sg366
S'c:/marmalade/7.8/s3e/h/std/sys/time.h'
p1894
sbsS'Iw2D.h'
p1895
g340
(g1626
g342
Ntp1896
Rp1897
(dp1898
g1630
g1267
sg1631
g1723
sg366
g1273
sbsS'IwGeomVec2.h'
p1899
g340
(g1626
g342
Ntp1900
Rp1901
(dp1902
g1630
g1301
sg1631
g1688
sg366
g1347
sbsS's3eDevice.h'
p1903
g340
(g1626
g342
Ntp1904
Rp1905
(dp1906
g1630
g1638
sg1631
g1654
sg366
S'c:/marmalade/7.8/s3e/h/s3eDevice.h'
p1907
sbsS'malloc.h'
p1908
g340
(g1626
g342
Ntp1909
Rp1910
(dp1911
g1630
g1638
sg1631
g1660
sg366
S'c:/marmalade/7.8/s3e/h/std/malloc.h'
p1912
sbsS'Dictionary.cpp'
p1913
g340
(g1626
g342
Ntp1914
Rp1915
(dp1916
g1630
g1199
sg1631
(lp1917
sg366
g1200
sbsS'stdarg.h'
p1918
g340
(g1626
g342
Ntp1919
Rp1920
(dp1921
g1630
g1638
sg1631
g1660
sg366
S'c:/marmalade/7.8/s3e/h/std/stdarg.h'
p1922
sbsS'IwGeomCore.h'
p1923
g340
(g1626
g342
Ntp1924
Rp1925
(dp1926
g1630
g1301
sg1631
g1688
sg366
g1357
sbsS'Iw2DSceneGraph.h'
p1927
g340
(g1626
g342
Ntp1928
Rp1929
(dp1930
g1630
g1243
sg1631
g1883
sg366
g1249
sbsS'endian.h'
p1931
g340
(g1626
g342
Ntp1932
Rp1933
(dp1934
g1630
g1638
sg1631
g1660
sg366
S'c:/marmalade/7.8/s3e/h/std/endian.h'
p1935
sbsS'gl3ext.h'
p1936
g340
(g1626
g342
Ntp1937
Rp1938
(dp1939
g1630
g1638
sg1631
(lp1940
g1640
aS'GL'
p1941
aS'GLES 3.0'
p1942
asg366
S'c:/marmalade/7.8/s3e/h/GLES3/gl3ext.h'
p1943
sbsS'glob.h'
p1944
g340
(g1626
g342
Ntp1945
Rp1946
(dp1947
g1630
g1638
sg1631
g1660
sg366
S'c:/marmalade/7.8/s3e/h/std/glob.h'
p1948
sbsS'fstream'
p1949
g340
(g1626
g342
Ntp1950
Rp1951
(dp1952
g1630
g1638
sg1631
g1639
sg366
S'c:/marmalade/7.8/s3e/h/std/c++/fstream'
p1953
sbsS's3eCamera.h'
p1954
g340
(g1626
g342
Ntp1955
Rp1956
(dp1957
g1630
g1638
sg1631
g1654
sg366
S'c:/marmalade/7.8/s3e/h/s3eCamera.h'
p1958
sbsS'jconfig.h'
p1959
g340
(g1626
g342
Ntp1960
Rp1961
(dp1962
g1630
g1593
sg1631
g1718
sg366
g1596
sbsS'memory'
p1963
g340
(g1626
g342
Ntp1964
Rp1965
(dp1966
g1630
g1638
sg1631
g1639
sg366
S'c:/marmalade/7.8/s3e/h/std/c++/memory'
p1967
sbsS'egl.h'
p1968
g340
(g1626
g342
Ntp1969
Rp1970
(dp1971
g1630
g1638
sg1631
(lp1972
g1640
aS'GL'
p1973
aS'EGL'
p1974
asg366
S'c:/marmalade/7.8/s3e/h/EGL/egl.h'
p1975
sbsS'IwClip.inl'
p1976
g340
(g1626
g342
Ntp1977
Rp1978
(dp1979
g1630
g1401
sg1631
g1760
sg366
g1431
sbsS'IwMemManagerDL.h'
p1980
g340
(g1626
g342
Ntp1981
Rp1982
(dp1983
g1630
g1465
sg1631
g1667
sg366
g1563
sbsS'deque'
p1984
g340
(g1626
g342
Ntp1985
Rp1986
(dp1987
g1630
g1638
sg1631
g1639
sg366
S'c:/marmalade/7.8/s3e/h/std/c++/deque'
p1988
sbsS'IwString.h'
p1989
g340
(g1626
g342
Ntp1990
Rp1991
(dp1992
g1630
g1465
sg1631
g1667
sg366
g1527
sbsS'cwchar'
p1993
g340
(g1626
g342
Ntp1994
Rp1995
(dp1996
g1630
g1638
sg1631
g1639
sg366
S'c:/marmalade/7.8/s3e/h/std/c++/cwchar'
p1997
sbsS'iwutil.mkf'
p1998
g340
(g1626
g342
Ntp1999
Rp2000
(dp2001
g1630
g1502
sg1631
g1667
sg366
g1500
sbsS'csignal'
p2002
g340
(g1626
g342
Ntp2003
Rp2004
(dp2005
g1630
g1638
sg1631
g1639
sg366
S'c:/marmalade/7.8/s3e/h/std/c++/csignal'
p2006
sbsS'float.h'
p2007
g340
(g1626
g342
Ntp2008
Rp2009
(dp2010
g1630
g1638
sg1631
g1660
sg366
S'c:/marmalade/7.8/s3e/h/std/float.h'
p2011
sbsS'pthread_alloc'
p2012
g340
(g1626
g342
Ntp2013
Rp2014
(dp2015
g1630
g1638
sg1631
g1639
sg366
S'c:/marmalade/7.8/s3e/h/std/c++/pthread_alloc'
p2016
sbsS'getopt.h'
p2017
g340
(g1626
g342
Ntp2018
Rp2019
(dp2020
g1630
g1638
sg1631
g1660
sg366
S'c:/marmalade/7.8/s3e/h/std/getopt.h'
p2021
sbsS'IwOptimiseARM.h'
p2022
g340
(g1626
g342
Ntp2023
Rp2024
(dp2025
g1630
g1465
sg1631
g1667
sg366
g1541
sbsS'times.h'
p2026
g340
(g1626
g342
Ntp2027
Rp2028
(dp2029
g1630
g1638
sg1631
g1774
sg366
S'c:/marmalade/7.8/s3e/h/std/sys/times.h'
p2030
sbsS'IwGeomFSphere.h'
p2031
g340
(g1626
g342
Ntp2032
Rp2033
(dp2034
g1630
g1301
sg1631
g1688
sg366
g1365
sbsS'amazon-ads-android-sdk.mkf'
p2035
g340
(g1626
g342
Ntp2036
Rp2037
(dp2038
g1630
g1181
sg1631
(lp2039
g1177
asg366
g1179
sbsS'IwTypes.h'
p2040
g340
(g1626
g342
Ntp2041
Rp2042
(dp2043
g1630
g1465
sg1631
g1667
sg366
g1519
sbsS'unistd.h'
p2044
g340
(g1626
g342
Ntp2045
Rp2046
(dp2047
g1630
g1638
sg1631
g1660
sg366
S'c:/marmalade/7.8/s3e/h/std/unistd.h'
p2048
sbsS's3eCompression.h'
p2049
g340
(g1626
g342
Ntp2050
Rp2051
(dp2052
g1630
g1638
sg1631
g1654
sg366
S'c:/marmalade/7.8/s3e/h/s3eCompression.h'
p2053
sbsS'langinfo.h'
p2054
g340
(g1626
g342
Ntp2055
Rp2056
(dp2057
g1630
g1638
sg1631
g1660
sg366
S'c:/marmalade/7.8/s3e/h/std/langinfo.h'
p2058
sbsS's3edebugHeap.h'
p2059
g340
(g1626
g342
Ntp2060
Rp2061
(dp2062
g1630
g1638
sg1631
g1843
sg366
S'c:/marmalade/7.8/s3e/h/ext/s3edebugHeap.h'
p2063
sbsS'AirplayVersion.h'
p2064
g340
(g1626
g342
Ntp2065
Rp2066
(dp2067
g1630
g1638
sg1631
g1654
sg366
S'c:/marmalade/7.8/s3e/h/AirplayVersion.h'
p2068
sbsS'gl2extimg.h'
p2069
g340
(g1626
g342
Ntp2070
Rp2071
(dp2072
g1630
g1638
sg1631
g1875
sg366
S'c:/marmalade/7.8/s3e/h/GLES2/gl2extimg.h'
p2073
sbsS'app.config.txt'
p2074
g340
(g1626
g342
Ntp2075
Rp2076
(dp2077
g1630
(dp2078
sg1631
g4
sg366
S'c:/Users/Jordan/Documents/GitHub/words/data/app.config.txt'
p2079
sbsS'IwGeomSqrt.h'
p2080
g340
(g1626
g342
Ntp2081
Rp2082
(dp2083
g1630
g1301
sg1631
g1688
sg366
g1331
sbsS'tiniconv_int.h'
p2084
g340
(g1626
g342
Ntp2085
Rp2086
(dp2087
g1630
g1186
sg1631
(lp2088
g1182
asg366
g1187
sbsS'syslog.h'
p2089
g340
(g1626
g342
Ntp2090
Rp2091
(dp2092
g1630
g1638
sg1631
g1660
sg366
S'c:/marmalade/7.8/s3e/h/std/syslog.h'
p2093
sbsS'IwGxFontTypes.h'
p2094
g340
(g1626
g342
Ntp2095
Rp2096
(dp2097
g1630
g1279
sg1631
g1632
sg366
g1283
sbsS'IwGeomFIntersect.h'
p2098
g340
(g1626
g342
Ntp2099
Rp2100
(dp2101
g1630
g1301
sg1631
g1688
sg366
g1322
sbsS'hash_map'
p2102
g340
(g1626
g342
Ntp2103
Rp2104
(dp2105
g1630
g1638
sg1631
g1639
sg366
S'c:/marmalade/7.8/s3e/h/std/c++/hash_map'
p2106
sbsS's3e.mkf'
p2107
g340
(g1626
g342
Ntp2108
Rp2109
(dp2110
g1630
(dp2111
sg1631
g1654
sg366
S'c:/marmalade/7.8/s3e/s3e.mkf'
p2112
sbsS'IwGeomMat2D.h.tpl'
p2113
g340
(g1626
g342
Ntp2114
Rp2115
(dp2116
g1630
g1301
sg1631
g1688
sg366
g1371
sbsS's3eOSReadString.h'
p2117
g340
(g1626
g342
Ntp2118
Rp2119
(dp2120
g1630
g1638
sg1631
g1843
sg366
S'c:/marmalade/7.8/s3e/h/ext/s3eOSReadString.h'
p2121
sbsS'map'
p2122
g340
(g1626
g342
Ntp2123
Rp2124
(dp2125
g1630
g1638
sg1631
g1639
sg366
S'c:/marmalade/7.8/s3e/h/std/c++/map'
p2126
sbsS'iwtween.mkf'
p2127
g340
(g1626
g342
Ntp2128
Rp2129
(dp2130
g1630
g1574
sg1631
(lp2131
g1567
asg366
g1572
sbsS'IwOptimiseSpeed.h'
p2132
g340
(g1626
g342
Ntp2133
Rp2134
(dp2135
g1630
g1465
sg1631
g1667
sg366
g1513
sbsS'msl_string.h'
p2136
g340
(g1626
g342
Ntp2137
Rp2138
(dp2139
g1630
g1638
sg1631
g1639
sg366
S'c:/marmalade/7.8/s3e/h/std/c++/msl_string.h'
p2140
sbsS'select.h'
p2141
g340
(g1626
g342
Ntp2142
Rp2143
(dp2144
g1630
g1638
sg1631
g1774
sg366
S'c:/marmalade/7.8/s3e/h/std/sys/select.h'
p2145
sbsS'zlib.mkf'
p2146
g340
(g1626
g342
Ntp2147
Rp2148
(dp2149
g1630
g1587
sg1631
(lp2150
g1577
asg366
g1585
sbsS'signal.h'
p2151
g340
(g1626
g342
Ntp2152
Rp2153
(dp2154
g1630
g1638
sg1631
g1660
sg366
S'c:/marmalade/7.8/s3e/h/std/signal.h'
p2155
sbsS'sigcontext.h'
p2156
g340
(g1626
g342
Ntp2157
Rp2158
(dp2159
g1630
g1638
sg1631
g1660
sg366
S'c:/marmalade/7.8/s3e/h/std/sigcontext.h'
p2160
sbsS'libpng.mkf'
p2161
g340
(g1626
g342
Ntp2162
Rp2163
(dp2164
g1630
g1176
sg1631
(lp2165
g1165
asg366
g1174
sbsS's3eClipboard.h'
p2166
g340
(g1626
g342
Ntp2167
Rp2168
(dp2169
g1630
g1638
sg1631
g1654
sg366
S'c:/marmalade/7.8/s3e/h/s3eClipboard.h'
p2170
sbsS'IwGxFuncTable.h'
p2171
g340
(g1626
g342
Ntp2172
Rp2173
(dp2174
g1630
g1401
sg1631
g1760
sg366
g1410
sbsS'IwResHandlerGROUP.h'
p2175
g340
(g1626
g342
Ntp2176
Rp2177
(dp2178
g1630
g1377
sg1631
(lp2179
g1237
ag1373
asg366
g1393
sbsS's3eDebug.h'
p2180
g340
(g1626
g342
Ntp2181
Rp2182
(dp2183
g1630
g1638
sg1631
g1654
sg366
S'c:/marmalade/7.8/s3e/h/s3eDebug.h'
p2184
sbsS'socket.h'
p2185
g340
(g1626
g342
Ntp2186
Rp2187
(dp2188
g1630
g1638
sg1631
g1774
sg366
S'c:/marmalade/7.8/s3e/h/std/sys/socket.h'
p2189
sbsS'glext.h'
p2190
g340
(g1626
g342
Ntp2191
Rp2192
(dp2193
g1630
g1638
sg1631
(lp2194
g1640
aS'GL'
p2195
aS'GLES 1.x'
p2196
asg366
S'c:/marmalade/7.8/s3e/h/GLES/glext.h'
p2197
sbsS'typeinfo.h'
p2198
g340
(g1626
g342
Ntp2199
Rp2200
(dp2201
g1630
g1638
sg1631
g1639
sg366
S'c:/marmalade/7.8/s3e/h/std/c++/typeinfo.h'
p2202
sbsS'typeinfo'
p2203
g340
(g1626
g342
Ntp2204
Rp2205
(dp2206
g1630
g1638
sg1631
g1639
sg366
S'c:/marmalade/7.8/s3e/h/std/c++/typeinfo'
p2207
sbsS'fstream.h'
p2208
g340
(g1626
g342
Ntp2209
Rp2210
(dp2211
g1630
g1638
sg1631
g1639
sg366
S'c:/marmalade/7.8/s3e/h/std/c++/fstream.h'
p2212
sbsS's3ePointer.h'
p2213
g340
(g1626
g342
Ntp2214
Rp2215
(dp2216
g1630
g1638
sg1631
g1654
sg366
S'c:/marmalade/7.8/s3e/h/s3ePointer.h'
p2217
sbsS'iw2d.mkf'
p2218
g340
(g1626
g342
Ntp2219
Rp2220
(dp2221
g1630
g1270
sg1631
g1723
sg366
g1268
sbsS'PVRTexTool.h'
p2222
g340
(g1626
g342
Ntp2223
Rp2224
(dp2225
g1630
g1224
sg1631
(lp2226
S'Extensions'
p2227
ag1218
asg366
g1227
sbsS's3eGL.h'
p2228
g340
(g1626
g342
Ntp2229
Rp2230
(dp2231
g1630
g1638
sg1631
g1654
sg366
S'c:/marmalade/7.8/s3e/h/s3eGL.h'
p2232
sbsS'IwGeomFVec2.h'
p2233
g340
(g1626
g342
Ntp2234
Rp2235
(dp2236
g1630
g1301
sg1631
g1688
sg366
g1314
sbsS'IwGeomSVec4.h'
p2237
g340
(g1626
g342
Ntp2238
Rp2239
(dp2240
g1630
g1301
sg1631
g1688
sg366
g1316
sbsS'poll.h'
p2241
g340
(g1626
g342
Ntp2242
Rp2243
(dp2244
g1630
g1638
sg1631
g1660
sg366
S'c:/marmalade/7.8/s3e/h/std/poll.h'
p2245
sbsS'IwMatAnim.h'
p2246
g340
(g1626
g342
Ntp2247
Rp2248
(dp2249
g1630
g1401
sg1631
g1760
sg366
g1423
sbsS'PVRTexTool.defines.txt'
p2250
g340
(g1626
g342
Ntp2251
Rp2252
(dp2253
g1630
g1224
sg1631
(lp2254
g2227
ag1218
ag1220
asg366
g1222
sbsS'IwGx.h'
p2255
g340
(g1626
g342
Ntp2256
Rp2257
(dp2258
g1630
g1401
sg1631
g1760
sg366
g1417
sbsS'valarray'
p2259
g340
(g1626
g342
Ntp2260
Rp2261
(dp2262
g1630
g1638
sg1631
g1639
sg366
S'c:/marmalade/7.8/s3e/h/std/c++/valarray'
p2263
sbsS'iosfwd'
p2264
g340
(g1626
g342
Ntp2265
Rp2266
(dp2267
g1630
g1638
sg1631
g1639
sg366
S'c:/marmalade/7.8/s3e/h/std/c++/iosfwd'
p2268
sbsS'gl2.h'
p2269
g340
(g1626
g342
Ntp2270
Rp2271
(dp2272
g1630
g1638
sg1631
g1875
sg366
S'c:/marmalade/7.8/s3e/h/GLES2/gl2.h'
p2273
sbsS'jpegint.h'
p2274
g340
(g1626
g342
Ntp2275
Rp2276
(dp2277
g1630
g1593
sg1631
g1718
sg366
g1606
sbsS'stdiostream.h'
p2278
g340
(g1626
g342
Ntp2279
Rp2280
(dp2281
g1630
g1638
sg1631
g1639
sg366
S'c:/marmalade/7.8/s3e/h/std/c++/stdiostream.h'
p2282
sbsS'mem.h'
p2283
g340
(g1626
g342
Ntp2284
Rp2285
(dp2286
g1630
g1638
sg1631
g1639
sg366
S'c:/marmalade/7.8/s3e/h/std/c++/mem.h'
p2287
sbsS'jerror.h'
p2288
g340
(g1626
g342
Ntp2289
Rp2290
(dp2291
g1630
g1593
sg1631
g1718
sg366
g1598
sbsS'zconf.h'
p2292
g340
(g1626
g342
Ntp2293
Rp2294
(dp2295
g1630
g1582
sg1631
(lp2296
g1577
ag1167
asg366
g1583
sbsS's3e.config.txt'
p2297
g340
(g1626
g342
Ntp2298
Rp2299
(dp2300
g1630
g1638
sg1631
g1654
sg366
S'c:/marmalade/7.8/s3e/s3e.config.txt'
p2301
sbsS'numeric'
p2302
g340
(g1626
g342
Ntp2303
Rp2304
(dp2305
g1630
g1638
sg1631
g1639
sg366
S'c:/marmalade/7.8/s3e/h/std/c++/numeric'
p2306
sbsS'utime.h'
p2307
g340
(g1626
g342
Ntp2308
Rp2309
(dp2310
g1630
g1638
sg1631
g1660
sg366
S'c:/marmalade/7.8/s3e/h/std/utime.h'
p2311
sbsS'jdhuff.h'
p2312
g340
(g1626
g342
Ntp2313
Rp2314
(dp2315
g1630
g1593
sg1631
g1718
sg366
g1591
sbsS'IwGxStream.h'
p2316
g340
(g1626
g342
Ntp2317
Rp2318
(dp2319
g1630
g1401
sg1631
g1760
sg366
g1406
sbsS'IwImage.h'
p2320
g340
(g1626
g342
Ntp2321
Rp2322
(dp2323
g1630
g1465
sg1631
g1667
sg366
g1478
sbsS's3eImagePicker.h'
p2324
g340
(g1626
g342
Ntp2325
Rp2326
(dp2327
g1630
g1638
sg1631
g1843
sg366
S'c:/marmalade/7.8/s3e/h/ext/s3eImagePicker.h'
p2328
sbsS'stdlib.h'
p2329
g340
(g1626
g342
Ntp2330
Rp2331
(dp2332
g1630
g1638
sg1631
g1660
sg366
S'c:/marmalade/7.8/s3e/h/std/stdlib.h'
p2333
sbsS'IwCopyingPtr.h'
p2334
g340
(g1626
g342
Ntp2335
Rp2336
(dp2337
g1630
g1465
sg1631
g1667
sg366
g1474
sbsS'iostream'
p2338
g340
(g1626
g342
Ntp2339
Rp2340
(dp2341
g1630
g1638
sg1631
g1639
sg366
S'c:/marmalade/7.8/s3e/h/std/c++/iostream'
p2342
sbsS'png.h'
p2343
g340
(g1626
g342
Ntp2344
Rp2345
(dp2346
g1630
g1171
sg1631
(lp2347
g1165
ag1167
asg366
g1172
sbsS'stddef.h'
p2348
g340
(g1626
g342
Ntp2349
Rp2350
(dp2351
g1630
g1638
sg1631
g1660
sg366
S'c:/marmalade/7.8/s3e/h/std/stddef.h'
p2352
sbsS'setjmp_win32.h'
p2353
g340
(g1626
g342
Ntp2354
Rp2355
(dp2356
g1630
g1638
sg1631
g1660
sg366
S'c:/marmalade/7.8/s3e/h/std/setjmp_win32.h'
p2357
sbsS'IwGxPrint.h'
p2358
g340
(g1626
g342
Ntp2359
Rp2360
(dp2361
g1630
g1401
sg1631
g1760
sg366
g1404
sbsS'iwgx_public.defines.txt'
p2362
g340
(g1626
g342
Ntp2363
Rp2364
(dp2365
g1630
g1401
sg1631
g1760
sg366
g1447
sbsS'streambuf.h'
p2366
g340
(g1626
g342
Ntp2367
Rp2368
(dp2369
g1630
g1638
sg1631
g1639
sg366
S'c:/marmalade/7.8/s3e/h/std/c++/streambuf.h'
p2370
sbsS'IwGeomFPlane.h'
p2371
g340
(g1626
g342
Ntp2372
Rp2373
(dp2374
g1630
g1301
sg1631
g1688
sg366
g1343
sbsS'wchar.h'
p2375
g340
(g1626
g342
Ntp2376
Rp2377
(dp2378
g1630
g1638
sg1631
g1660
sg366
S'c:/marmalade/7.8/s3e/h/std/wchar.h'
p2379
sbsS's3eCameraCapture.h'
p2380
g340
(g1626
g342
Ntp2381
Rp2382
(dp2383
g1630
g1638
sg1631
g1843
sg366
S'c:/marmalade/7.8/s3e/h/ext/s3eCameraCapture.h'
p2384
sbsS'eglext.h'
p2385
g340
(g1626
g342
Ntp2386
Rp2387
(dp2388
g1630
g1638
sg1631
g1972
sg366
S'c:/marmalade/7.8/s3e/h/EGL/eglext.h'
p2389
sbsS'IwResHandlerImage.h'
p2390
g340
(g1626
g342
Ntp2391
Rp2392
(dp2393
g1630
g1377
sg1631
g2179
sg366
g1383
sbsS'strstream.h'
p2394
g340
(g1626
g342
Ntp2395
Rp2396
(dp2397
g1630
g1638
sg1631
g1639
sg366
S'c:/marmalade/7.8/s3e/h/std/c++/strstream.h'
p2398
sbsS'tiniconv.h'
p2399
g340
(g1626
g342
Ntp2400
Rp2401
(dp2402
g1630
g1186
sg1631
g2088
sg366
g1184
sbsS'IwGLExt.h'
p2403
g340
(g1626
g342
Ntp2404
Rp2405
(dp2406
g1630
g1255
sg1631
g1648
sg366
g1261
sbsS'app.icf'
p2407
g340
(g1626
g342
Ntp2408
Rp2409
(dp2410
g1630
(dp2411
sg1631
g4
sg366
S'c:/Users/Jordan/Documents/GitHub/words/data/app.icf'
p2412
sbsS'IwClassFactory.h'
p2413
g340
(g1626
g342
Ntp2414
Rp2415
(dp2416
g1630
g1465
sg1631
g1667
sg366
g1482
sbsS'file.h'
p2417
g340
(g1626
g342
Ntp2418
Rp2419
(dp2420
g1630
g1638
sg1631
g1774
sg366
S'c:/marmalade/7.8/s3e/h/std/sys/file.h'
p2421
sbsS'cstring'
p2422
g340
(g1626
g342
Ntp2423
Rp2424
(dp2425
g1630
g1638
sg1631
g1639
sg366
S'c:/marmalade/7.8/s3e/h/std/c++/cstring'
p2426
sbsS'iwutil.config.txt'
p2427
g340
(g1626
g342
Ntp2428
Rp2429
(dp2430
g1630
g1465
sg1631
g1667
sg366
g1543
sbsS's3eSMS.h'
p2431
g340
(g1626
g342
Ntp2432
Rp2433
(dp2434
g1630
g1638
sg1631
g1843
sg366
S'c:/marmalade/7.8/s3e/h/ext/s3eSMS.h'
p2435
sbsS'limits.h'
p2436
g340
(g1626
g342
Ntp2437
Rp2438
(dp2439
g1630
g1638
sg1631
g1660
sg366
S'c:/marmalade/7.8/s3e/h/std/limits.h'
p2440
sbsS'iwgl.config.txt'
p2441
g340
(g1626
g342
Ntp2442
Rp2443
(dp2444
g1630
g1255
sg1631
g1648
sg366
g1259
sbsS'IwMaterial.h'
p2445
g340
(g1626
g342
Ntp2446
Rp2447
(dp2448
g1630
g1401
sg1631
g1760
sg366
g1437
sbsS'amazon-ads-ios-sdk.mkf'
p2449
g340
(g1626
g342
Ntp2450
Rp2451
(dp2452
g1630
g1196
sg1631
(lp2453
g1192
asg366
g1194
sbsS'PVRTexTool_interface.cpp'
p2454
g340
(g1626
g342
Ntp2455
Rp2456
(dp2457
g1630
g1224
sg1631
g2254
sg366
g1225
sbsS'IwGxSurface.h'
p2458
g340
(g1626
g342
Ntp2459
Rp2460
(dp2461
g1630
g1401
sg1631
g1760
sg366
g1415
sbsS's3eSocket.h'
p2462
g340
(g1626
g342
Ntp2463
Rp2464
(dp2465
g1630
g1638
sg1631
g1654
sg366
S'c:/marmalade/7.8/s3e/h/s3eSocket.h'
p2466
sbsS'IwAutoFile.h'
p2467
g340
(g1626
g342
Ntp2468
Rp2469
(dp2470
g1630
g1465
sg1631
g1667
sg366
g1553
sbsS'ipc.h'
p2471
g340
(g1626
g342
Ntp2472
Rp2473
(dp2474
g1630
g1638
sg1631
g1774
sg366
S'c:/marmalade/7.8/s3e/h/std/sys/ipc.h'
p2475
sbsS'poll_1.h'
p2476
g340
(g1626
g342
Ntp2477
Rp2478
(dp2479
g1630
g1638
sg1631
g1774
sg366
S'c:/marmalade/7.8/s3e/h/std/sys/poll.h'
p2480
sbsS's3eThread.h'
p2481
g340
(g1626
g342
Ntp2482
Rp2483
(dp2484
g1630
g1638
sg1631
g1654
sg366
S'c:/marmalade/7.8/s3e/h/s3eThread.h'
p2485
sbsS'ucontext.h'
p2486
g340
(g1626
g342
Ntp2487
Rp2488
(dp2489
g1630
g1638
sg1631
g1660
sg366
S'c:/marmalade/7.8/s3e/h/std/ucontext.h'
p2490
sbsS'time.h'
p2491
g340
(g1626
g342
Ntp2492
Rp2493
(dp2494
g1630
g1638
sg1631
g1660
sg366
S'c:/marmalade/7.8/s3e/h/std/time.h'
p2495
sbsS'jchuff.h'
p2496
g340
(g1626
g342
Ntp2497
Rp2498
(dp2499
g1630
g1593
sg1631
g1718
sg366
g1602
sbsS's3eSoundRecord.h'
p2500
g340
(g1626
g342
Ntp2501
Rp2502
(dp2503
g1630
g1638
sg1631
g1654
sg366
S'c:/marmalade/7.8/s3e/h/s3eSoundRecord.h'
p2504
sbsS'IwFibre.h'
p2505
g340
(g1626
g342
Ntp2506
Rp2507
(dp2508
g1630
g1465
sg1631
g1667
sg366
g1476
sbsS's3eVersion.h'
p2509
g340
(g1626
g342
Ntp2510
Rp2511
(dp2512
g1630
g1638
sg1631
g1654
sg366
S'c:/marmalade/7.8/s3e/h/s3eVersion.h'
p2513
sbsS'IwGxFontGlyph.h'
p2514
g340
(g1626
g342
Ntp2515
Rp2516
(dp2517
g1630
g1279
sg1631
g1632
sg366
g1291
sbsS's3eTypes.h'
p2518
g340
(g1626
g342
Ntp2519
Rp2520
(dp2521
g1630
g1638
sg1631
g1654
sg366
S'c:/marmalade/7.8/s3e/h/s3eTypes.h'
p2522
sbsS'signal_2.h'
p2523
g340
(g1626
g342
Ntp2524
Rp2525
(dp2526
g1630
g1638
sg1631
g1639
sg366
S'c:/marmalade/7.8/s3e/h/std/c++/signal.h'
p2527
sbsS'termios.h'
p2528
g340
(g1626
g342
Ntp2529
Rp2530
(dp2531
g1630
g1638
sg1631
g1660
sg366
S'c:/marmalade/7.8/s3e/h/std/termios.h'
p2532
sbsS's3eAmazonAds_interface.cpp'
p2533
g340
(g1626
g342
Ntp2534
Rp2535
(dp2536
g1630
g1210
sg1631
(lp2537
g1202
ag1204
ag1206
asg366
g1208
sbsS'iw2dscenegraph.mkf'
p2538
g340
(g1626
g342
Ntp2539
Rp2540
(dp2541
g1630
g1248
sg1631
g1883
sg366
g1246
sbsS'slist'
p2542
g340
(g1626
g342
Ntp2543
Rp2544
(dp2545
g1630
g1638
sg1631
g1639
sg366
S'c:/marmalade/7.8/s3e/h/std/c++/slist'
p2546
sbsS'cstdlib'
p2547
g340
(g1626
g342
Ntp2548
Rp2549
(dp2550
g1630
g1638
sg1631
g1639
sg366
S'c:/marmalade/7.8/s3e/h/std/c++/cstdlib'
p2551
sbsS's3eLocation.h'
p2552
g340
(g1626
g342
Ntp2553
Rp2554
(dp2555
g1630
g1638
sg1631
g1654
sg366
S'c:/marmalade/7.8/s3e/h/s3eLocation.h'
p2556
sbsS'IwMemBucketHelpers.h'
p2557
g340
(g1626
g342
Ntp2558
Rp2559
(dp2560
g1630
g1465
sg1631
g1667
sg366
g1539
sbsS's3eHash.h'
p2561
g340
(g1626
g342
Ntp2562
Rp2563
(dp2564
g1630
g1638
sg1631
g1654
sg366
S'c:/marmalade/7.8/s3e/h/s3eHash.h'
p2565
sbsS'IwGeomFMat.h'
p2566
g340
(g1626
g342
Ntp2567
Rp2568
(dp2569
g1630
g1301
sg1631
g1688
sg366
g1349
sbsS'type_traits.h'
p2570
g340
(g1626
g342
Ntp2571
Rp2572
(dp2573
g1630
g1638
sg1631
g1639
sg366
S'c:/marmalade/7.8/s3e/h/std/c++/type_traits.h'
p2574
sbsS's3eAtomic.h'
p2575
g340
(g1626
g342
Ntp2576
Rp2577
(dp2578
g1630
g1638
sg1631
g1654
sg366
S'c:/marmalade/7.8/s3e/h/s3eAtomic.h'
p2579
sbsS'IwMenu.h'
p2580
g340
(g1626
g342
Ntp2581
Rp2582
(dp2583
g1630
g1465
sg1631
g1667
sg366
g1468
sbsS'IwResHandlerITX.h'
p2584
g340
(g1626
g342
Ntp2585
Rp2586
(dp2587
g1630
g1377
sg1631
g2179
sg366
g1387
sbsS'IwArray.h'
p2588
g340
(g1626
g342
Ntp2589
Rp2590
(dp2591
g1630
g1465
sg1631
g1667
sg366
g1533
sbsS'IwUTF8.h'
p2592
g340
(g1626
g342
Ntp2593
Rp2594
(dp2595
g1630
g1465
sg1631
g1667
sg366
g1549
sbsS'math_rvct.h'
p2596
g340
(g1626
g342
Ntp2597
Rp2598
(dp2599
g1630
g1638
sg1631
g1660
sg366
S'c:/marmalade/7.8/s3e/h/std/math_rvct.h'
p2600
sbsS'IwUtil.h'
p2601
g340
(g1626
g342
Ntp2602
Rp2603
(dp2604
g1630
g1465
sg1631
g1667
sg366
g1509
sbsS'Dictionary.h'
p2605
g340
(g1626
g342
Ntp2606
Rp2607
(dp2608
g1630
g1199
sg1631
g1917
sg366
g1565
sbsS'IwFColour.h'
p2609
g340
(g1626
g342
Ntp2610
Rp2611
(dp2612
g1630
g1401
sg1631
g1760
sg366
g1439
sbsS's3eamazonads.mkf'
p2613
g340
(g1626
g342
Ntp2614
Rp2615
(dp2616
g1630
g1215
sg1631
(lp2617
g1202
ag1204
asg366
g1213
sbsS'wctype.h'
p2618
g340
(g1626
g342
Ntp2619
Rp2620
(dp2621
g1630
g1638
sg1631
g1660
sg366
S'c:/marmalade/7.8/s3e/h/std/wctype.h'
p2622
sbsS'cstddef'
p2623
g340
(g1626
g342
Ntp2624
Rp2625
(dp2626
g1630
g1638
sg1631
g1639
sg366
S'c:/marmalade/7.8/s3e/h/std/c++/cstddef'
p2627
sbsS'assert.h'
p2628
g340
(g1626
g342
Ntp2629
Rp2630
(dp2631
g1630
g1638
sg1631
g1660
sg366
S'c:/marmalade/7.8/s3e/h/std/assert.h'
p2632
sbsS'mman.h'
p2633
g340
(g1626
g342
Ntp2634
Rp2635
(dp2636
g1630
g1638
sg1631
g1774
sg366
S'c:/marmalade/7.8/s3e/h/std/sys/mman.h'
p2637
sbsS'IwRandom.h'
p2638
g340
(g1626
g342
Ntp2639
Rp2640
(dp2641
g1630
g1465
sg1631
g1667
sg366
g1505
sbsS'libgen.h'
p2642
g340
(g1626
g342
Ntp2643
Rp2644
(dp2645
g1630
g1638
sg1631
g1660
sg366
S'c:/marmalade/7.8/s3e/h/std/libgen.h'
p2646
sbsS'utsname.h'
p2647
g340
(g1626
g342
Ntp2648
Rp2649
(dp2650
g1630
g1638
sg1631
g1774
sg366
S'c:/marmalade/7.8/s3e/h/std/sys/utsname.h'
p2651
sbsS'wait.h'
p2652
g340
(g1626
g342
Ntp2653
Rp2654
(dp2655
g1630
g1638
sg1631
g1774
sg366
S'c:/marmalade/7.8/s3e/h/std/sys/wait.h'
p2656
sbsS'param.h'
p2657
g340
(g1626
g342
Ntp2658
Rp2659
(dp2660
g1630
g1638
sg1631
g1774
sg366
S'c:/marmalade/7.8/s3e/h/std/sys/param.h'
p2661
sbsS'IwDivide.h'
p2662
g340
(g1626
g342
Ntp2663
Rp2664
(dp2665
g1630
g1465
sg1631
g1667
sg366
g1535
sbsS'Iw2DSceneGraphCore.cpp'
p2666
g340
(g1626
g342
Ntp2667
Rp2668
(dp2669
g1630
g1455
sg1631
(lp2670
S"'Marmalade Studio'"
p2671
ag1451
asg366
g1459
sbsS'IwResManager.h'
p2672
g340
(g1626
g342
Ntp2673
Rp2674
(dp2675
g1630
g1377
sg1631
g2179
sg366
g1381
sbsS'ostream'
p2676
g340
(g1626
g342
Ntp2677
Rp2678
(dp2679
g1630
g1638
sg1631
g1639
sg366
S'c:/marmalade/7.8/s3e/h/std/c++/ostream'
p2680
sbsS'cwctype'
p2681
g340
(g1626
g342
Ntp2682
Rp2683
(dp2684
g1630
g1638
sg1631
g1639
sg366
S'c:/marmalade/7.8/s3e/h/std/c++/cwctype'
p2685
sbsS'set'
p2686
g340
(g1626
g342
Ntp2687
Rp2688
(dp2689
g1630
g1638
sg1631
g1639
sg366
S'c:/marmalade/7.8/s3e/h/std/c++/set'
p2690
sbsS'IwGeomSQuat.h'
p2691
g340
(g1626
g342
Ntp2692
Rp2693
(dp2694
g1630
g1301
sg1631
g1688
sg366
g1327
sbsS'locale'
p2695
g340
(g1626
g342
Ntp2696
Rp2697
(dp2698
g1630
g1638
sg1631
g1639
sg366
S'c:/marmalade/7.8/s3e/h/std/c++/locale'
p2699
sbsS'cstdio'
p2700
g340
(g1626
g342
Ntp2701
Rp2702
(dp2703
g1630
g1638
sg1631
g1639
sg366
S'c:/marmalade/7.8/s3e/h/std/c++/cstdio'
p2704
sbsS'cdjpeg.h'
p2705
g340
(g1626
g342
Ntp2706
Rp2707
(dp2708
g1630
g1593
sg1631
g1718
sg366
g1600
sbsS'IwList.h'
p2709
g340
(g1626
g342
Ntp2710
Rp2711
(dp2712
g1630
g1465
sg1631
g1667
sg366
g1490
sbsS'inttypes.h'
p2713
g340
(g1626
g342
Ntp2714
Rp2715
(dp2716
g1630
g1638
sg1631
g1660
sg366
S'c:/marmalade/7.8/s3e/h/std/inttypes.h'
p2717
sbsS'dirent.h'
p2718
g340
(g1626
g342
Ntp2719
Rp2720
(dp2721
g1630
g1638
sg1631
g1660
sg366
S'c:/marmalade/7.8/s3e/h/std/dirent.h'
p2722
sbsS'IwGeomVec3.h'
p2723
g340
(g1626
g342
Ntp2724
Rp2725
(dp2726
g1630
g1301
sg1631
g1688
sg366
g1353
sbsS'transupp.h'
p2727
g340
(g1626
g342
Ntp2728
Rp2729
(dp2730
g1630
g1593
sg1631
g1718
sg366
g1608
sbsS'IwMath.h'
p2731
g340
(g1626
g342
Ntp2732
Rp2733
(dp2734
g1630
g1465
sg1631
g1667
sg366
g1480
sbsS'IwGeomQuat.h'
p2735
g340
(g1626
g342
Ntp2736
Rp2737
(dp2738
g1630
g1301
sg1631
g1688
sg366
g1345
sbsS'glplatform.h'
p2739
g340
(g1626
g342
Ntp2740
Rp2741
(dp2742
g1630
g1638
sg1631
g2194
sg366
S'c:/marmalade/7.8/s3e/h/GLES/glplatform.h'
p2743
sbsS's3e-default.mkf'
p2744
g340
(g1626
g342
Ntp2745
Rp2746
(dp2747
g1630
g1236
sg1631
(lp2748
g1232
asg366
g1234
sbsS'bitset'
p2749
g340
(g1626
g342
Ntp2750
Rp2751
(dp2752
g1630
g1638
sg1631
g1639
sg366
S'c:/marmalade/7.8/s3e/h/std/c++/bitset'
p2753
sbsS'alloca.h'
p2754
g340
(g1626
g342
Ntp2755
Rp2756
(dp2757
g1630
g1638
sg1631
g1660
sg366
S'c:/marmalade/7.8/s3e/h/std/alloca.h'
p2758
sbsS'IwResHandler.h'
p2759
g340
(g1626
g342
Ntp2760
Rp2761
(dp2762
g1630
g1377
sg1631
g2179
sg366
g1375
sbsS'IwResHandlerMTL.h'
p2763
g340
(g1626
g342
Ntp2764
Rp2765
(dp2766
g1630
g1401
sg1631
g1760
sg366
g1441
sbsS'IwRuntime.h'
p2767
g340
(g1626
g342
Ntp2768
Rp2769
(dp2770
g1630
g1465
sg1631
g1667
sg366
g1484
sbsS'limits'
p2771
g340
(g1626
g342
Ntp2772
Rp2773
(dp2774
g1630
g1638
sg1631
g1639
sg366
S'c:/marmalade/7.8/s3e/h/std/c++/limits'
p2775
sbsS'IwGeomBBox.h'
p2776
g340
(g1626
g342
Ntp2777
Rp2778
(dp2779
g1630
g1301
sg1631
g1688
sg366
g1359
sbsS's3eContacts.h'
p2780
g340
(g1626
g342
Ntp2781
Rp2782
(dp2783
g1630
g1638
sg1631
g1654
sg366
S'c:/marmalade/7.8/s3e/h/s3eContacts.h'
p2784
sbsS's3eLicense.h'
p2785
g340
(g1626
g342
Ntp2786
Rp2787
(dp2788
g1630
g1638
sg1631
g1654
sg366
S'c:/marmalade/7.8/s3e/h/s3eLicense.h'
p2789
sbsS'iwgx.config.txt'
p2790
g340
(g1626
g342
Ntp2791
Rp2792
(dp2793
g1630
g1401
sg1631
g1760
sg366
g1429
sbsS'IwTextParser.h'
p2794
g340
(g1626
g342
Ntp2795
Rp2796
(dp2797
g1630
g1465
sg1631
g1667
sg366
g1466
sbsS's3eTimer.h'
p2798
g340
(g1626
g342
Ntp2799
Rp2800
(dp2801
g1630
g1638
sg1631
g1654
sg366
S'c:/marmalade/7.8/s3e/h/s3eTimer.h'
p2802
sbsS'IwGeomVec.h'
p2803
g340
(g1626
g342
Ntp2804
Rp2805
(dp2806
g1630
g1301
sg1631
g1688
sg366
g1367
sbsS'IwSerialise.h'
p2807
g340
(g1626
g342
Ntp2808
Rp2809
(dp2810
g1630
g1465
sg1631
g1667
sg366
g1463
sbsS'cstdarg'
p2811
g340
(g1626
g342
Ntp2812
Rp2813
(dp2814
g1630
g1638
sg1631
g1639
sg366
S'c:/marmalade/7.8/s3e/h/std/c++/cstdarg'
p2815
sbsS'gl2ext.h'
p2816
g340
(g1626
g342
Ntp2817
Rp2818
(dp2819
g1630
g1638
sg1631
g1875
sg366
S'c:/marmalade/7.8/s3e/h/GLES2/gl2ext.h'
p2820
sbsS'IwChar.h'
p2821
g340
(g1626
g342
Ntp2822
Rp2823
(dp2824
g1630
g1465
sg1631
g1667
sg366
g1551
sbsS's3eSound.h'
p2825
g340
(g1626
g342
Ntp2826
Rp2827
(dp2828
g1630
g1638
sg1631
g1654
sg366
S'c:/marmalade/7.8/s3e/h/s3eSound.h'
p2829
sbsS'IwOptimiseThumb.h'
p2830
g340
(g1626
g342
Ntp2831
Rp2832
(dp2833
g1630
g1465
sg1631
g1667
sg366
g1488
sbsS'exception.h'
p2834
g340
(g1626
g342
Ntp2835
Rp2836
(dp2837
g1630
g1638
sg1631
g1639
sg366
S'c:/marmalade/7.8/s3e/h/std/c++/exception.h'
p2838
sbsS'iwgeom.config.txt'
p2839
g340
(g1626
g342
Ntp2840
Rp2841
(dp2842
g1630
g1301
sg1631
g1688
sg366
g1369
sbsS'gl31.h'
p2843
g340
(g1626
g342
Ntp2844
Rp2845
(dp2846
g1630
g1638
sg1631
g1940
sg366
S'c:/marmalade/7.8/s3e/h/GLES3/gl31.h'
p2847
sbsS'gl.h'
p2848
g340
(g1626
g342
Ntp2849
Rp2850
(dp2851
g1630
g1638
sg1631
g2194
sg366
S'c:/marmalade/7.8/s3e/h/GLES/gl.h'
p2852
sbsS'zlib.h'
p2853
g340
(g1626
g342
Ntp2854
Rp2855
(dp2856
g1630
g1582
sg1631
g2296
sg366
g1580
sbsS'temp_defines_release.h'
p2857
g340
(g1626
g342
Ntp2858
Rp2859
(dp2860
g1630
(lp2861
sg1631
(lp2862
S"'generated files'"
p2863
asg366
S'c:/Users/Jordan/Documents/GitHub/words/build_words_vc12x/temp_defines_release.h'
p2864
sbsS'iwgl.mkf'
p2865
g340
(g1626
g342
Ntp2866
Rp2867
(dp2868
g1630
g1258
sg1631
g1648
sg366
g1256
sbsS'IwColour.h'
p2869
g340
(g1626
g342
Ntp2870
Rp2871
(dp2872
g1630
g1401
sg1631
g1760
sg366
g1433
sbsS's3eLibrary.h'
p2873
g340
(g1626
g342
Ntp2874
Rp2875
(dp2876
g1630
g1638
sg1631
g1843
sg366
S'c:/marmalade/7.8/s3e/h/ext/s3eLibrary.h'
p2877
sbsS'types.h'
p2878
g340
(g1626
g342
Ntp2879
Rp2880
(dp2881
g1630
g1638
sg1631
g1774
sg366
S'c:/marmalade/7.8/s3e/h/std/sys/types.h'
p2882
sbsS'ifaddrs.h'
p2883
g340
(g1626
g342
Ntp2884
Rp2885
(dp2886
g1630
g1638
sg1631
g1660
sg366
S'c:/marmalade/7.8/s3e/h/std/ifaddrs.h'
p2887
sbsS'strstream'
p2888
g340
(g1626
g342
Ntp2889
Rp2890
(dp2891
g1630
g1638
sg1631
g1639
sg366
S'c:/marmalade/7.8/s3e/h/std/c++/strstream'
p2892
sbsS'IwTween.cpp'
p2893
g340
(g1626
g342
Ntp2894
Rp2895
(dp2896
g1630
g1571
sg1631
g2131
sg366
g1575
sbsS'exception'
p2897
g340
(g1626
g342
Ntp2898
Rp2899
(dp2900
g1630
g1638
sg1631
g1639
sg366
S'c:/marmalade/7.8/s3e/h/std/c++/exception'
p2901
sbsS's3eAmazonAds.defines.txt'
p2902
g340
(g1626
g342
Ntp2903
Rp2904
(dp2905
g1630
g1210
sg1631
g2537
sg366
g1211
sbsS'rlocks.h'
p2906
g340
(g1626
g342
Ntp2907
Rp2908
(dp2909
g1630
g1638
sg1631
g1639
sg366
S'c:/marmalade/7.8/s3e/h/std/c++/rlocks.h'
p2910
sbsS'ioctl.h'
p2911
g340
(g1626
g342
Ntp2912
Rp2913
(dp2914
g1630
g1638
sg1631
g1774
sg366
S'c:/marmalade/7.8/s3e/h/std/sys/ioctl.h'
p2915
sbsS'rope'
p2916
g340
(g1626
g342
Ntp2917
Rp2918
(dp2919
g1630
g1638
sg1631
g1639
sg366
S'c:/marmalade/7.8/s3e/h/std/c++/rope'
p2920
sbsS'jinclude.h'
p2921
g340
(g1626
g342
Ntp2922
Rp2923
(dp2924
g1630
g1593
sg1631
g1718
sg366
g1612
sbsS'IwEvent.h'
p2925
g340
(g1626
g342
Ntp2926
Rp2927
(dp2928
g1630
g1465
sg1631
g1667
sg366
g1498
sbsS'IwOptimiseSize.h'
p2929
g340
(g1626
g342
Ntp2930
Rp2931
(dp2932
g1630
g1465
sg1631
g1667
sg366
g1557
sbsS'iwgxfont_public.defines.txt'
p2933
g340
(g1626
g342
Ntp2934
Rp2935
(dp2936
g1630
g1279
sg1631
g1632
sg366
g1285
sbsS'iconv.h'
p2937
g340
(g1626
g342
Ntp2938
Rp2939
(dp2940
g1630
g1638
sg1631
g1660
sg366
S'c:/marmalade/7.8/s3e/h/std/iconv.h'
p2941
sbsS'sendfile.h'
p2942
g340
(g1626
g342
Ntp2943
Rp2944
(dp2945
g1630
g1638
sg1631
g1774
sg366
S'c:/marmalade/7.8/s3e/h/std/sys/sendfile.h'
p2946
sbsS'IwGeomSphere.h'
p2947
g340
(g1626
g342
Ntp2948
Rp2949
(dp2950
g1630
g1301
sg1631
g1688
sg366
g1302
sbsS'tiniconv.mkf'
p2951
g340
(g1626
g342
Ntp2952
Rp2953
(dp2954
g1630
g1191
sg1631
g2088
sg366
g1189
sbsS'IwResManagerClass.h'
p2955
g340
(g1626
g342
Ntp2956
Rp2957
(dp2958
g1630
g1377
sg1631
g2179
sg366
g1391
sbsS'jdct.h'
p2959
g340
(g1626
g342
Ntp2960
Rp2961
(dp2962
g1630
g1593
sg1631
g1718
sg366
g1618
sbsS'cctype'
p2963
g340
(g1626
g342
Ntp2964
Rp2965
(dp2966
g1630
g1638
sg1631
g1639
sg366
S'c:/marmalade/7.8/s3e/h/std/c++/cctype'
p2967
sbsS's3eConfig.h'
p2968
g340
(g1626
g342
Ntp2969
Rp2970
(dp2971
g1630
g1638
sg1631
g1654
sg366
S'c:/marmalade/7.8/s3e/h/s3eConfig.h'
p2972
sbsS'IwHashString.h'
p2973
g340
(g1626
g342
Ntp2974
Rp2975
(dp2976
g1630
g1465
sg1631
g1667
sg366
g1517
sbsS'stat.h'
p2977
g340
(g1626
g342
Ntp2978
Rp2979
(dp2980
g1630
g1638
sg1631
g1774
sg366
S'c:/marmalade/7.8/s3e/h/std/sys/stat.h'
p2981
sbsS'byteswap.h'
p2982
g340
(g1626
g342
Ntp2983
Rp2984
(dp2985
g1630
g1638
sg1631
g1660
sg366
S'c:/marmalade/7.8/s3e/h/std/byteswap.h'
p2986
sbsS'iwresmanager.mkf'
p2987
g340
(g1626
g342
Ntp2988
Rp2989
(dp2990
g1630
g1380
sg1631
g2179
sg366
g1378
sbsS'IwUtilInitTerm.h'
p2991
g340
(g1626
g342
Ntp2992
Rp2993
(dp2994
g1630
g1465
sg1631
g1667
sg366
g1492
sbsS'pthread_1.h'
p2995
g340
(g1626
g342
Ntp2996
Rp2997
(dp2998
g1630
g1638
sg1631
g1639
sg366
S'c:/marmalade/7.8/s3e/h/std/c++/pthread.h'
p2999
sbsS'IwMemBucket.h'
p3000
g340
(g1626
g342
Ntp3001
Rp3002
(dp3003
g1630
g1465
sg1631
g1667
sg366
g1494
sbsS'complex'
p3004
g340
(g1626
g342
Ntp3005
Rp3006
(dp3007
g1630
g1638
sg1631
g1639
sg366
S'c:/marmalade/7.8/s3e/h/std/c++/complex'
p3008
sbsS'algorithm'
p3009
g340
(g1626
g342
Ntp3010
Rp3011
(dp3012
g1630
g1638
sg1631
g1639
sg366
S'c:/marmalade/7.8/s3e/h/std/c++/algorithm'
p3013
sbsS's3e.icf'
p3014
g340
(g1626
g342
Ntp3015
Rp3016
(dp3017
g1630
g1638
sg1631
g1654
sg366
S'c:/marmalade/7.8/s3e/s3e.icf'
p3018
sbsS'IwVariableBitField.h'
p3019
g340
(g1626
g342
Ntp3020
Rp3021
(dp3022
g1630
g1465
sg1631
g1667
sg366
g1537
sbsS'sem.h'
p3023
g340
(g1626
g342
Ntp3024
Rp3025
(dp3026
g1630
g1638
sg1631
g1774
sg366
S'c:/marmalade/7.8/s3e/h/std/sys/sem.h'
p3027
sbsS'IwGxFontState.h'
p3028
g340
(g1626
g342
Ntp3029
Rp3030
(dp3031
g1630
g1279
sg1631
g1632
sg366
g1277
sbsS'stdio.h'
p3032
g340
(g1626
g342
Ntp3033
Rp3034
(dp3035
g1630
g1638
sg1631
g1660
sg366
S'c:/marmalade/7.8/s3e/h/std/stdio.h'
p3036
sbsS'jmemsys.h'
p3037
g340
(g1626
g342
Ntp3038
Rp3039
(dp3040
g1630
g1593
sg1631
g1718
sg366
g1610
sbsS'ios'
p3041
g340
(g1626
g342
Ntp3042
Rp3043
(dp3044
g1630
g1638
sg1631
g1639
sg366
S'c:/marmalade/7.8/s3e/h/std/c++/ios'
p3045
sbsS'IwTween.h'
p3046
g340
(g1626
g342
Ntp3047
Rp3048
(dp3049
g1630
g1571
sg1631
g2131
sg366
g1569
sbsS'IwGeomFVec4.h'
p3050
g340
(g1626
g342
Ntp3051
Rp3052
(dp3053
g1630
g1301
sg1631
g1688
sg366
g1361
sbsS'stack'
p3054
g340
(g1626
g342
Ntp3055
Rp3056
(dp3057
g1630
g1638
sg1631
g1639
sg366
S'c:/marmalade/7.8/s3e/h/std/c++/stack'
p3058
sbsS'new.h'
p3059
g340
(g1626
g342
Ntp3060
Rp3061
(dp3062
g1630
g1638
sg1631
g1639
sg366
S'c:/marmalade/7.8/s3e/h/std/c++/new.h'
p3063
sbsS's3eAmazonAds.h'
p3064
g340
(g1626
g342
Ntp3065
Rp3066
(dp3067
g1630
g1210
sg1631
g2617
sg366
g1216
sbsS's3eEMail.h'
p3068
g340
(g1626
g342
Ntp3069
Rp3070
(dp3071
g1630
g1638
sg1631
g1843
sg366
S'c:/marmalade/7.8/s3e/h/ext/s3eEMail.h'
p3072
sbsS's3eVideo.h'
p3073
g340
(g1626
g342
Ntp3074
Rp3075
(dp3076
g1630
g1638
sg1631
g1654
sg366
S'c:/marmalade/7.8/s3e/h/s3eVideo.h'
p3077
sbsS'pngconf.h'
p3078
g340
(g1626
g342
Ntp3079
Rp3080
(dp3081
g1630
g1171
sg1631
g2347
sg366
g1169
sbsS'pwd.h'
p3082
g340
(g1626
g342
Ntp3083
Rp3084
(dp3085
g1630
g1638
sg1631
g1660
sg366
S'c:/marmalade/7.8/s3e/h/std/pwd.h'
p3086
sbsS'gl3.h'
p3087
g340
(g1626
g342
Ntp3088
Rp3089
(dp3090
g1630
g1638
sg1631
g1940
sg366
S'c:/marmalade/7.8/s3e/h/GLES3/gl3.h'
p3091
sbsS'IwClip.h'
p3092
g340
(g1626
g342
Ntp3093
Rp3094
(dp3095
g1630
g1401
sg1631
g1760
sg366
g1435
sbsS'iwresmanager.config.txt'
p3096
g340
(g1626
g342
Ntp3097
Rp3098
(dp3099
g1630
g1377
sg1631
g2179
sg366
g1395
sbsS'IwGxShaderTechnique.h'
p3100
g340
(g1626
g342
Ntp3101
Rp3102
(dp3103
g1630
g1401
sg1631
g1760
sg366
g1449
sbsS'IwCore.h'
p3104
g340
(g1626
g342
Ntp3105
Rp3106
(dp3107
g1630
g1465
sg1631
g1667
sg366
g1545
sbsS'cfloat'
p3108
g340
(g1626
g342
Ntp3109
Rp3110
(dp3111
g1630
g1638
sg1631
g1639
sg366
S'c:/marmalade/7.8/s3e/h/std/c++/cfloat'
p3112
sbsS'IwGeomMat2D.h'
p3113
g340
(g1626
g342
Ntp3114
Rp3115
(dp3116
g1630
g1301
sg1631
g1688
sg366
g1308
sbsS'IwAllocator.h'
p3117
g340
(g1626
g342
Ntp3118
Rp3119
(dp3120
g1630
g1465
sg1631
g1667
sg366
g1511
sbsS'IwPath.h'
p3121
g340
(g1626
g342
Ntp3122
Rp3123
(dp3124
g1630
g1465
sg1631
g1667
sg366
g1547
sbsS'iwgxfont.mkf'
p3125
g340
(g1626
g342
Ntp3126
Rp3127
(dp3128
g1630
g1282
sg1631
g1632
sg366
g1280
sbsS'IwTexture.h'
p3129
g340
(g1626
g342
Ntp3130
Rp3131
(dp3132
g1630
g1401
sg1631
g1760
sg366
g1427
sbsS'IwGeomVec.h.tpl'
p3133
g340
(g1626
g342
Ntp3134
Rp3135
(dp3136
g1630
g1301
sg1631
g1688
sg366
g1363
sbsS's3eAccelerometer.h'
p3137
g340
(g1626
g342
Ntp3138
Rp3139
(dp3140
g1630
g1638
sg1631
g1654
sg366
S'c:/marmalade/7.8/s3e/h/s3eAccelerometer.h'
p3141
sbsS'setjmp.h'
p3142
g340
(g1626
g342
Ntp3143
Rp3144
(dp3145
g1630
g1638
sg1631
g1660
sg366
S'c:/marmalade/7.8/s3e/h/std/setjmp.h'
p3146
sbsS'IwFile.h'
p3147
g340
(g1626
g342
Ntp3148
Rp3149
(dp3150
g1630
g1465
sg1631
g1667
sg366
g1472
sbsS'IwTextParseable.h'
p3151
g340
(g1626
g342
Ntp3152
Rp3153
(dp3154
g1630
g1465
sg1631
g1667
sg366
g1496
sbsS'istream.h'
p3155
g340
(g1626
g342
Ntp3156
Rp3157
(dp3158
g1630
g1638
sg1631
g1639
sg366
S'c:/marmalade/7.8/s3e/h/std/c++/istream.h'
p3159
sbsS'stdint.h'
p3160
g340
(g1626
g342
Ntp3161
Rp3162
(dp3163
g1630
g1638
sg1631
g1660
sg366
S'c:/marmalade/7.8/s3e/h/std/stdint.h'
p3164
sbsS'semaphore.h'
p3165
g340
(g1626
g342
Ntp3166
Rp3167
(dp3168
g1630
g1638
sg1631
g1660
sg366
S'c:/marmalade/7.8/s3e/h/std/semaphore.h'
p3169
sbsS'ctime'
p3170
g340
(g1626
g342
Ntp3171
Rp3172
(dp3173
g1630
g1638
sg1631
g1639
sg366
S'c:/marmalade/7.8/s3e/h/std/c++/ctime'
p3174
sbsS'sstream'
p3175
g340
(g1626
g342
Ntp3176
Rp3177
(dp3178
g1630
g1638
sg1631
g1639
sg366
S'c:/marmalade/7.8/s3e/h/std/c++/sstream'
p3179
sbsS'IwGeomFBBox.h'
p3180
g340
(g1626
g342
Ntp3181
Rp3182
(dp3183
g1630
g1301
sg1631
g1688
sg366
g1341
sbsS'IwDebugPrim.h'
p3184
g340
(g1626
g342
Ntp3185
Rp3186
(dp3187
g1630
g1401
sg1631
g1760
sg366
g1402
sbsS'IwGxFontContainer.h'
p3188
g340
(g1626
g342
Ntp3189
Rp3190
(dp3191
g1630
g1279
sg1631
g1632
sg366
g1295
sbsS'IwGeomSVec3.h'
p3192
g340
(g1626
g342
Ntp3193
Rp3194
(dp3195
g1630
g1301
sg1631
g1688
sg366
g1310
sbsS'iw2dscenegraphcore.mkf'
p3196
g340
(g1626
g342
Ntp3197
Rp3198
(dp3199
g1630
g1458
sg1631
g2670
sg366
g1456
sbsS's3eExt.h'
p3200
g340
(g1626
g342
Ntp3201
Rp3202
(dp3203
g1630
g1638
sg1631
g1654
sg366
S'c:/marmalade/7.8/s3e/h/s3eExt.h'
p3204
sbsS'IwGeomFVec3.h'
p3205
g340
(g1626
g342
Ntp3206
Rp3207
(dp3208
g1630
g1301
sg1631
g1688
sg366
g1312
sbsS'streambuf'
p3209
g340
(g1626
g342
Ntp3210
Rp3211
(dp3212
g1630
g1638
sg1631
g1639
sg366
S'c:/marmalade/7.8/s3e/h/std/c++/streambuf'
p3213
sbsS's3eMetrics.h'
p3214
g340
(g1626
g342
Ntp3215
Rp3216
(dp3217
g1630
g1638
sg1631
g1843
sg366
S'c:/marmalade/7.8/s3e/h/ext/s3eMetrics.h'
p3218
sbsS'IwGxFont.h'
p3219
g340
(g1626
g342
Ntp3220
Rp3221
(dp3222
g1630
g1279
sg1631
g1632
sg366
g1287
sbsS's3eSecureStorage.h'
p3223
g340
(g1626
g342
Ntp3224
Rp3225
(dp3226
g1630
g1638
sg1631
g1654
sg366
S'c:/marmalade/7.8/s3e/h/s3eSecureStorage.h'
p3227
sbsS'string.h'
p3228
g340
(g1626
g342
Ntp3229
Rp3230
(dp3231
g1630
g1638
sg1631
g1660
sg366
S'c:/marmalade/7.8/s3e/h/std/string.h'
p3232
sbsS'IwResource.h'
p3233
g340
(g1626
g342
Ntp3234
Rp3235
(dp3236
g1630
g1465
sg1631
g1667
sg366
g1561
sbsS'IwGeomSVec2.h'
p3237
g340
(g1626
g342
Ntp3238
Rp3239
(dp3240
g1630
g1301
sg1631
g1688
sg366
g1320
sbsS'libjpeg.mkf'
p3241
g340
(g1626
g342
Ntp3242
Rp3243
(dp3244
g1630
g1622
sg1631
(lp3245
g1588
asg366
g1620
sbsS'IwGxDebug.h'
p3246
g340
(g1626
g342
Ntp3247
Rp3248
(dp3249
g1630
g1401
sg1631
g1760
sg366
g1421
sbsS'pthread_types.h'
p3250
g340
(g1626
g342
Ntp3251
Rp3252
(dp3253
g1630
g1638
sg1631
g1660
sg366
S'c:/marmalade/7.8/s3e/h/std/pthread_types.h'
p3254
sbsS'iomanip.h'
p3255
g340
(g1626
g342
Ntp3256
Rp3257
(dp3258
g1630
g1638
sg1631
g1639
sg366
S'c:/marmalade/7.8/s3e/h/std/c++/iomanip.h'
p3259
sbsS'IwKeymap.h'
p3260
g340
(g1626
g342
Ntp3261
Rp3262
(dp3263
g1630
g1465
sg1631
g1667
sg366
g1521
sbsS'IwDebug.h'
p3264
g340
(g1626
g342
Ntp3265
Rp3266
(dp3267
g1630
g1465
sg1631
g1667
sg366
g1559
sbsS's3eIOSBackgroundAudio.h'
p3268
g340
(g1626
g342
Ntp3269
Rp3270
(dp3271
g1630
g1638
sg1631
g1843
sg366
S'c:/marmalade/7.8/s3e/h/ext/s3eIOSBackgroundAudio.h'
p3272
sbsS'IwGeomMenu.h'
p3273
g340
(g1626
g342
Ntp3274
Rp3275
(dp3276
g1630
g1301
sg1631
g1688
sg366
g1337
sbsS'IwDivTable.h'
p3277
g340
(g1626
g342
Ntp3278
Rp3279
(dp3280
g1630
g1465
sg1631
g1667
sg366
g1470
sbsS'ctype.h'
p3281
g340
(g1626
g342
Ntp3282
Rp3283
(dp3284
g1630
g1638
sg1631
g1660
sg366
S'c:/marmalade/7.8/s3e/h/std/ctype.h'
p3285
sbsS'IwGeomMat.h'
p3286
g340
(g1626
g342
Ntp3287
Rp3288
(dp3289
g1630
g1301
sg1631
g1688
sg366
g1329
sbsS'IwResGroup.h'
p3290
g340
(g1626
g342
Ntp3291
Rp3292
(dp3293
g1630
g1377
sg1631
g2179
sg366
g1389
sbsS'signal_1.h'
p3294
g340
(g1626
g342
Ntp3295
Rp3296
(dp3297
g1630
g1638
sg1631
g1774
sg366
S'c:/marmalade/7.8/s3e/h/std/sys/signal.h'
p3298
sbsS'functional'
p3299
g340
(g1626
g342
Ntp3300
Rp3301
(dp3302
g1630
g1638
sg1631
g1639
sg366
S'c:/marmalade/7.8/s3e/h/std/c++/functional'
p3303
sbsS'shm.h'
p3304
g340
(g1626
g342
Ntp3305
Rp3306
(dp3307
g1630
g1638
sg1631
g1774
sg366
S'c:/marmalade/7.8/s3e/h/std/sys/shm.h'
p3308
sbsS'IwManagedList.h'
p3309
g340
(g1626
g342
Ntp3310
Rp3311
(dp3312
g1630
g1465
sg1631
g1667
sg366
g1515
sbsS'prctl.h'
p3313
g340
(g1626
g342
Ntp3314
Rp3315
(dp3316
g1630
g1638
sg1631
g1774
sg366
S'c:/marmalade/7.8/s3e/h/std/sys/prctl.h'
p3317
sbsS'un.h'
p3318
g340
(g1626
g342
Ntp3319
Rp3320
(dp3321
g1630
g1638
sg1631
g1774
sg366
S'c:/marmalade/7.8/s3e/h/std/sys/un.h'
p3322
sbsS'temp_defines_debug.h'
p3323
g340
(g1626
g342
Ntp3324
Rp3325
(dp3326
g1630
(lp3327
sg1631
(lp3328
g2863
asg366
S'c:/Users/Jordan/Documents/GitHub/words/build_words_vc12x/temp_defines_debug.h'
p3329
sbsS'utility'
p3330
g340
(g1626
g342
Ntp3331
Rp3332
(dp3333
g1630
g1638
sg1631
g1639
sg366
S'c:/marmalade/7.8/s3e/h/std/c++/utility'
p3334
sbsS'IwGeomLegacy.h'
p3335
g340
(g1626
g342
Ntp3336
Rp3337
(dp3338
g1630
g1301
sg1631
g1688
sg366
g1333
sbsS'IwTPage.h'
p3339
g340
(g1626
g342
Ntp3340
Rp3341
(dp3342
g1630
g1401
sg1631
g1760
sg366
g1425
sbsS'words.cpp'
p3343
g340
(g1626
g342
Ntp3344
Rp3345
(dp3346
g1630
g1199
sg1631
g1917
sg366
g1197
sbsS'IwResSerialise.h'
p3347
g340
(g1626
g342
Ntp3348
Rp3349
(dp3350
g1630
g1377
sg1631
g2179
sg366
g1385
sbsS's3eCrypto.h'
p3351
g340
(g1626
g342
Ntp3352
Rp3353
(dp3354
g1630
g1638
sg1631
g1654
sg366
S'c:/marmalade/7.8/s3e/h/s3eCrypto.h'
p3355
sbsS's3eKeyboard.h'
p3356
g340
(g1626
g342
Ntp3357
Rp3358
(dp3359
g1630
g1638
sg1631
g1654
sg366
S'c:/marmalade/7.8/s3e/h/s3eKeyboard.h'
p3360
sbsS'fcntl.h'
p3361
g340
(g1626
g342
Ntp3362
Rp3363
(dp3364
g1630
g1638
sg1631
g1660
sg366
S'c:/marmalade/7.8/s3e/h/std/fcntl.h'
p3365
sbsS'Iw2DSceneGraphCore.h'
p3366
g340
(g1626
g342
Ntp3367
Rp3368
(dp3369
g1630
g1455
sg1631
g2670
sg366
g1453
sbsS'memory.h'
p3370
g340
(g1626
g342
Ntp3371
Rp3372
(dp3373
g1630
g1638
sg1631
g1660
sg366
S'c:/marmalade/7.8/s3e/h/std/memory.h'
p3374
sbsS'pthread.h'
p3375
g340
(g1626
g342
Ntp3376
Rp3377
(dp3378
g1630
g1638
sg1631
g1660
sg366
S'c:/marmalade/7.8/s3e/h/std/pthread.h'
p3379
sbsS'IwGeomIntersect.h'
p3380
g340
(g1626
g342
Ntp3381
Rp3382
(dp3383
g1630
g1301
sg1631
g1688
sg366
g1318
sbsS'IwTextParserITX.h'
p3384
g340
(g1626
g342
Ntp3385
Rp3386
(dp3387
g1630
g1465
sg1631
g1667
sg366
g1486
sbsS'egl_1.h'
p3388
g340
(g1626
g342
Ntp3389
Rp3390
(dp3391
g1630
g1638
sg1631
g2194
sg366
S'c:/marmalade/7.8/s3e/h/GLES/egl.h'
p3392
sbsS'Iw2DSceneGraph.cpp'
p3393
g340
(g1626
g342
Ntp3394
Rp3395
(dp3396
g1630
g1243
sg1631
g1883
sg366
g1241
sbsS'ostream.h'
p3397
g340
(g1626
g342
Ntp3398
Rp3399
(dp3400
g1630
g1638
sg1631
g1639
sg366
S'c:/marmalade/7.8/s3e/h/std/c++/ostream.h'
p3401
sbsS'stl_user_config.h'
p3402
g340
(g1626
g342
Ntp3403
Rp3404
(dp3405
g1630
g1638
sg1631
g1639
sg366
S'c:/marmalade/7.8/s3e/h/std/c++/stl_user_config.h'
p3406
sbsS'iwgx.mkf'
p3407
g340
(g1626
g342
Ntp3408
Rp3409
(dp3410
g1630
g1414
sg1631
g1760
sg366
g1412
sbsS'IwProfileMenu.h'
p3411
g340
(g1626
g342
Ntp3412
Rp3413
(dp3414
g1630
g1465
sg1631
g1667
sg366
g1525
sbsS'MarmaladeVersion.h'
p3415
g340
(g1626
g342
Ntp3416
Rp3417
(dp3418
g1630
g1638
sg1631
g1654
sg366
S'c:/marmalade/7.8/s3e/h/MarmaladeVersion.h'
p3419
sbsS'gl3platform.h'
p3420
g340
(g1626
g342
Ntp3421
Rp3422
(dp3423
g1630
g1638
sg1631
g1940
sg366
S'c:/marmalade/7.8/s3e/h/GLES3/gl3platform.h'
p3424
sbsS'ios.h'
p3425
g340
(g1626
g342
Ntp3426
Rp3427
(dp3428
g1630
g1638
sg1631
g1639
sg366
S'c:/marmalade/7.8/s3e/h/std/c++/ios.h'
p3429
sbsS'IwImageHelper.h'
p3430
g340
(g1626
g342
Ntp3431
Rp3432
(dp3433
g1630
g1465
sg1631
g1667
sg366
g1529
sbsS'hash_set'
p3434
g340
(g1626
g342
Ntp3435
Rp3436
(dp3437
g1630
g1638
sg1631
g1639
sg366
S'c:/marmalade/7.8/s3e/h/std/c++/hash_set'
p3438
sbsS'IwGeomFQuat.h'
p3439
g340
(g1626
g342
Ntp3440
Rp3441
(dp3442
g1630
g1301
sg1631
g1688
sg366
g1355
sbsS'jmorecfg.h'
p3443
g340
(g1626
g342
Ntp3444
Rp3445
(dp3446
g1630
g1593
sg1631
g1718
sg366
g1614
sbsS'eglplatform.h'
p3447
g340
(g1626
g342
Ntp3448
Rp3449
(dp3450
g1630
g1638
sg1631
g1972
sg366
S'c:/marmalade/7.8/s3e/h/EGL/eglplatform.h'
p3451
sbsS'cmath'
p3452
g340
(g1626
g342
Ntp3453
Rp3454
(dp3455
g1630
g1638
sg1631
g1639
sg366
S'c:/marmalade/7.8/s3e/h/std/c++/cmath'
p3456
sbsS'math_gcc.h'
p3457
g340
(g1626
g342
Ntp3458
Rp3459
(dp3460
g1630
g1638
sg1631
g1660
sg366
S'c:/marmalade/7.8/s3e/h/std/math_gcc.h'
p3461
sbsS's3eMemory.h'
p3462
g340
(g1626
g342
Ntp3463
Rp3464
(dp3465
g1630
g1638
sg1631
g1654
sg366
S'c:/marmalade/7.8/s3e/h/s3eMemory.h'
p3466
sbsS'strings.h'
p3467
g340
(g1626
g342
Ntp3468
Rp3469
(dp3470
g1630
g1638
sg1631
g1660
sg366
S'c:/marmalade/7.8/s3e/h/std/strings.h'
p3471
sbsS's3eFile.h'
p3472
g340
(g1626
g342
Ntp3473
Rp3474
(dp3475
g1630
g1638
sg1631
g1654
sg366
S'c:/marmalade/7.8/s3e/h/s3eFile.h'
p3476
sbsS'IwGxTypes.h'
p3477
g340
(g1626
g342
Ntp3478
Rp3479
(dp3480
g1630
g1401
sg1631
g1760
sg366
g1408
sbsS'cerrno'
p3481
g340
(g1626
g342
Ntp3482
Rp3483
(dp3484
g1630
g1638
sg1631
g1639
sg366
S'c:/marmalade/7.8/s3e/h/std/c++/cerrno'
p3485
sbsS'resource.h'
p3486
g340
(g1626
g342
Ntp3487
Rp3488
(dp3489
g1630
g1638
sg1631
g1774
sg366
S'c:/marmalade/7.8/s3e/h/std/sys/resource.h'
p3490
sbsS'clocale'
p3491
g340
(g1626
g342
Ntp3492
Rp3493
(dp3494
g1630
g1638
sg1631
g1639
sg366
S'c:/marmalade/7.8/s3e/h/std/c++/clocale'
p3495
sbsS'pvrtextool.mkf'
p3496
g340
(g1626
g342
Ntp3497
Rp3498
(dp3499
g1630
g1231
sg1631
g2226
sg366
g1229
sbsS'csetjmp'
p3500
g340
(g1626
g342
Ntp3501
Rp3502
(dp3503
g1630
g1638
sg1631
g1639
sg366
S'c:/marmalade/7.8/s3e/h/std/c++/csetjmp'
p3504
sbsS'netdb.h'
p3505
g340
(g1626
g342
Ntp3506
Rp3507
(dp3508
g1630
g1638
sg1631
g1660
sg366
S'c:/marmalade/7.8/s3e/h/std/netdb.h'
p3509
sbsS's3eAndroidJNI.h'
p3510
g340
(g1626
g342
Ntp3511
Rp3512
(dp3513
g1630
g1638
sg1631
g1843
sg366
S'c:/marmalade/7.8/s3e/h/ext/s3eAndroidJNI.h'
p3514
sbsS'stdexcept'
p3515
g340
(g1626
g342
Ntp3516
Rp3517
(dp3518
g1630
g1638
sg1631
g1639
sg366
S'c:/marmalade/7.8/s3e/h/std/c++/stdexcept'
p3519
sbsS'math.h'
p3520
g340
(g1626
g342
Ntp3521
Rp3522
(dp3523
g1630
g1638
sg1631
g1660
sg366
S'c:/marmalade/7.8/s3e/h/std/math.h'
p3524
sbsS'stdbool.h'
p3525
g340
(g1626
g342
Ntp3526
Rp3527
(dp3528
g1630
g1638
sg1631
g1660
sg366
S'c:/marmalade/7.8/s3e/h/std/stdbool.h'
p3529
sbsS'uio.h'
p3530
g340
(g1626
g342
Ntp3531
Rp3532
(dp3533
g1630
g1638
sg1631
g1774
sg366
S'c:/marmalade/7.8/s3e/h/std/sys/uio.h'
p3534
sbsS'IwUncopyable.h'
p3535
g340
(g1626
g342
Ntp3536
Rp3537
(dp3538
g1630
g1465
sg1631
g1667
sg366
g1531
sbssS'juice_build_type'
p3539
g4
sS'tests'
p3540
(lp3541
sS'project_name'
p3542
g348
sS'root_file'
p3543
g141
sS'current_root'
p3544
S'c:/Users/Jordan/Documents/GitHub/words'
p3545
sS'dependencies'
p3546
(lp3547
sS'include_paths'
p3548
(lp3549
S'c:/marmalade/7.8/extensions/s3eamazonads/h'
p3550
aS'c:/marmalade/7.8/modules/iwutil/h'
p3551
aS'c:/marmalade/7.8/modules/third_party/libjpeg/h'
p3552
aS'c:/marmalade/7.8/modules/third_party/zlib/h'
p3553
aS'c:/marmalade/7.8/modules/third_party/libpng/h'
p3554
aS'c:/marmalade/7.8/modules/iw2dscenegraphcore/h'
p3555
aS'c:/marmalade/7.8/modules/iw2dscenegraph/h'
p3556
aS'c:/marmalade/7.8/modules/iw2d/h'
p3557
aS'c:/marmalade/7.8/modules/iwgx/h'
p3558
aS'c:/marmalade/7.8/modules/iwgl/h'
p3559
aS'c:/marmalade/7.8/modules/iwgeom/h'
p3560
aS'c:/marmalade/7.8/modules/iwresmanager/h'
p3561
aS'c:/marmalade/7.8/extensions/pvrtextool/h'
p3562
aS'c:/marmalade/7.8/modules/iwgxfont/h'
p3563
aS'c:/marmalade/7.8/modules/third_party/tiniconv/source'
p3564
aS'c:/marmalade/7.8/modules/iwtween/h'
p3565
aS'c:/marmalade/7.8/s3e/h'
p3566
aS'c:/marmalade/7.8/s3e/h/ext'
p3567
aS'c:/marmalade/7.8/s3e/h/std'
p3568
aS'c:/marmalade/7.8/s3e/h/std/c++'
p3569
aS'c:/marmalade/7.8/s3e/h/ext_legacy'
p3570
aS'c:/marmalade/7.8/s3e/h/legacy'
p3571
asS'weak_frameworks'
p3572
(lp3573
sS'extprojects'
p3574
(dp3575
sg650
(dp3576
g644
(lp3577
(g95
S'.'
p3578
I0
tp3579
assS'macro_types'
p3580
(dp3581
g573
I0
sg575
I1
sg576
I0
sg577
I0
sg578
I0
sg579
I0
sg581
I0
sg582
I0
sg583
I0
sg584
I0
sg585
I0
sg586
I0
sg588
I0
sg589
I0
sg590
I0
sg591
I0
sg592
I0
sg593
I0
sg594
I0
sg595
I0
sg596
I0
sg598
I0
sg599
I0
sg600
I0
sg601
I0
sg602
I0
sg603
I0
sg604
I0
sg605
I1
sg606
I0
sg607
I0
sg608
I0
sg609
I0
sg610
I01
sg611
I1
sg612
I0
sg613
I0
sg614
I0
sg615
I0
sg616
I0
sg617
I0
sg618
I0
ssS'commands'
p3582
(lp3583
sg652
(g1158
S'VC12X'
p3584
S'X86ARMAARCH64'
p3585
tp3586
sS'build_libs'
p3587
(dp3588
sg654
g0
sS'frameworks'
p3589
(lp3590
sS'environ'
p3591
(dp3592
S'NACL_ROOT'
p3593
S'c:\\marmalade\\7.8/tools/gcc/x86_64/nacl_windows'
p3594
ssS'target_name_debug'
p3595
g348
sS'builders'
p3596
(dp3597
g644
(dp3598
S'.S'
p3599
(dp3600
S'gcc_aarch64'
p3601
(lp3602
S'.obj'
p3603
aS'echo AARCH64 Assembling(GCC) ${SOURCE}...'
p3604
aS'c:/marmalade/7.8/s3e\\gcc\\win32\\aarch64\\bin\\aarch64-none-elf-gcc -c -o ${TARGET} ${SOURCE}'
p3605
asS'rvct'
p3606
(lp3607
g3603
aS'echo ARM Assembling(RVCT) ${SOURCE}...'
p3608
aS'c:/marmalade/7.8/s3e\\rvct\\bin\\armasm -o ${TARGET} ${SOURCE}'
p3609
asg469
(lp3610
g3603
aS'echo ARM Assembling(GCC) ${SOURCE}...'
p3611
aS'c:/marmalade/7.8/s3e\\gcc\\win32\\arm\\bin\\arm-none-eabi-gcc -c -o ${TARGET} ${SOURCE}'
p3612
asS'ppu'
p3613
(lp3614
S'.a'
p3615
aS'echo PPU Assembling(SNC) ${SOURCE}...'
p3616
aS'c:/marmalade/7.8/s3e\\rvct\\bin\\armasm -o ${TARGET} ${SOURCE}'
p3617
assS'.s'
p3618
g3600
sS'.vp'
p3619
(lp3620
NaS'"C:/Marmalade/7.8/s3e/python/python.exe" "c:/marmalade/7.8/modules/iwgx/tools/compile_shaders.py" ${SOURCE}'
p3621
asssS'extproject_names'
p3622
(lp3623
sbtp3624
.