((dp0
S'arm_dbg_args'
p1
S'-via:"f:\\Users\\Teal\\Documents\\Marmalade\\words\\build_words_vc12x\\words_vc12x_arm_debug.via" -qemu'
p2
sS'game-icf'
p3
S''
p4
sS'dist'
p5
NsS'csproj'
p6
g4
sS'module_path_append'
p7
NsS'global_path'
p8
S'f:\\users\\teal\\documents\\marmalade'
p9
sS'system_path'
p10
S'f:\\marmalade\\7.9\\s3e\\makefile_builder'
p11
sS'android_x86_dbg_args'
p12
S'../../tools/DeployTool/DeployTool.exe --dir "f:\\Users\\Teal\\Documents\\Marmalade\\words\\build_words_vc12x"'
p13
sS'aarch64-arch-mod'
p14
g4
sS'no-emit'
p15
NsS'arm-float-abi'
p16
g4
sS'arm_rel_rtsm_args'
p17
S'-via:"f:\\Users\\Teal\\Documents\\Marmalade\\words\\build_words_vc12x\\words_vc12x_arm_release.via" -qemu'
p18
sS'amd64'
p19
NsS'line-width'
p20
I80
sS'gcc_dbg_args'
p21
S'-via:"f:\\Users\\Teal\\Documents\\Marmalade\\words\\build_words_vc12x\\words_vc12x_gcc_debug.via" -qemu'
p22
sS'sim-release-loader'
p23
NsS'android-x86'
p24
NsS'x86_dbg_exe'
p25
S'f:/marmalade/7.9/s3e\\win32\\s3e_simulator_debug.exe'
p26
sS'jflags'
p27
NsS'nacl_x86_64_rel_args'
p28
g13
sS'release'
p29
NsS'no-make'
p30
NsS'xcode-x86-build-settings'
p31
g4
sS'optimise-size'
p32
NsS'fat'
p33
NsS'output-name-debug'
p34
g4
sS'arm-fpu'
p35
g4
sS'proj_name'
p36
S'words_vc12x'
p37
sS'rvct-version'
p38
S'none'
p39
sS'compiler'
p40
g4
sS'execute'
p41
NsS'compile-static'
p42
NsS'nacl_x86_64_rel_exe'
p43
S'f:\\marmalade\\7.9\\s3e\\makefile_builder\\tool_launcher.exe'
p44
sS'msvc-project'
p45
I01
sS'buildenv'
p46
S'VC12X'
p47
sS'quick'
p48
NsS'module_path'
p49
NsS'mkf_default'
p50
S's3e-default.mkf'
p51
sS'use-release-std-libs'
p52
NsS'using_perforce'
p53
I00
sS'tizen-x86'
p54
NsS'mips-s3e'
p55
NsS's3e-api-lib-name'
p56
S's3e_api_iwgl'
p57
sS'ios-no-pic'
p58
NsS'shared-arm-lib'
p59
NsS'arm-cpu'
p60
g4
sS'compile-thumb'
p61
NsS'no-ide'
p62
NsS'msvc-version'
p63
S'6.0'
p64
sS'arm'
p65
NsS'nacl_x86_64_dbg_exe'
p66
g44
sS'builddir'
p67
g4
sS'compile-debug-as-release'
p68
I0
sS'arm-arch'
p69
g4
sS'brief'
p70
NsS'dll'
p71
NsS'buildenv-toolset'
p72
g4
sS'version'
p73
NsS'aarch64-arch'
p74
g4
sS'ccache'
p75
I0
sS'offline'
p76
NsS'ios-version'
p77
g4
sS'hub_data'
p78
g4
sS'fake_vc_call'
p79
NsS'jobs'
p80
I0
sS'linkflags'
p81
NsS'gcc_aarch64_dbg_args'
p82
g13
sS'nacl_x86_64_dbg_args'
p83
g13
sS'debug'
p84
NsS'xcode-build-order'
p85
g4
sS'gcc_aarch64_rel_rtsm_args'
p86
S'-via:"f:\\Users\\Teal\\Documents\\Marmalade\\words\\build_words_vc12x\\words_vc12x_gcc_aarch64_release.via" -qemu'
p87
sS'gcc_rel_rtsm_args'
p88
S'-via:"f:\\Users\\Teal\\Documents\\Marmalade\\words\\build_words_vc12x\\words_vc12x_gcc_release.via" -qemu'
p89
sS'done_defaults'
p90
I1
sS'path'
p91
(lp92
S'f:/marmalade/7.9/tools/gcc/x86_64/nacl_windows/toolchain/win_x86_glibc/bin'
p93
asS's3e-data-dir'
p94
S'f:/Users/Teal/Documents/Marmalade/words\\data'
p95
sS'enable-exceptions'
p96
NsS'osx-dll'
p97
NsS'extension'
p98
g4
sS'no-vc6'
p99
NsS'aarch64'
p100
NsS'win32-console'
p101
NsS'dist-format'
p102
g4
sS's3e-force-arch'
p103
NsS'dump_defines'
p104
NsS'use-shared-std-libs'
p105
NsS'gcc-version'
p106
g4
sS'x86_dbg_args'
p107
S'-via:"f:\\Users\\Teal\\Documents\\Marmalade\\words\\build_words_vc12x\\words_vc12x_debug.via"'
p108
sS'nacl'
p109
NsS'tizen_x86_dbg_args'
p110
g13
sS'arm-debugger'
p111
g4
sS'use_temp_extension'
p112
NsS'verbose'
p113
I0
sS'log'
p114
NsS'no-strip'
p115
NsS'rebuild'
p116
NsS'mips_dbg_args'
p117
g13
sS'win32-simulator-dll'
p118
NsS'strict'
p119
NsS'xcode-aarch64-build-settings'
p120
g4
sS'enable-global-path'
p121
NsS'gcc_aarch64_rel_args'
p122
g13
sS'cflags'
p123
NsS'dist-dir'
p124
g4
sS'xcode-arm-build-settings'
p125
g4
sS'disable-runtime-checks'
p126
NsS'csprojSDKRefs'
p127
g4
sS'tizen_x86_rel_exe'
p128
g44
sS'builddirroot'
p129
g4
sS'distcc'
p130
NsS'external-compiler'
p131
NsS'no-distcc'
p132
NsS'retry-build'
p133
S'0'
p134
sS'preinclude'
p135
NsS'using_sdk'
p136
I01
sS'nologo'
p137
NsS'warn-level'
p138
I2
sS'mips_dbg_exe'
p139
g44
sS'mkb_in'
p140
S'f:/Users/Teal/Documents/Marmalade/words/words.mkb'
p141
sS'no-objc-arc'
p142
NsS'tizen_x86_dbg_exe'
p143
g44
sS'arm_dbg_exe'
p144
S'f:/marmalade/7.9/s3e\\bin\\armdebug.exe'
p145
sS'mdev-first'
p146
NsS'csprojDLLRef'
p147
NsS'tizen_x86_rel_args'
p148
g13
sS'android_x86_dbg_exe'
p149
g44
sS'naclx86_64'
p150
NsS'test-config'
p151
g4
sS'list-targets'
p152
NsS'arm_rel_exe'
p153
g44
sS'arm_rel_args'
p154
g13
sS'makedeps'
p155
NsS'android_x86_rel_exe'
p156
g44
sS'default-buildenv'
p157
S'vc12x'
p158
sS'x86_rel_exe'
p159
S'f:/marmalade/7.9/s3e\\win32\\s3e_simulator_release.exe'
p160
sS'preprocess-java'
p161
NsS'mips_rel_args'
p162
g13
sS'test-assets'
p163
g4
sS'lib'
p164
NsS'non-interactive'
p165
NsS'global_argv'
p166
(lp167
S'F:\\Marmalade\\7.9\\s3e\\makefile_builder\\mkb.py'
p168
aS'f:/Users/Teal/Documents/Marmalade/words/words.mkb'
p169
aS'--buildenv=VC12X'
p170
aS'--default-buildenv=vc12x'
p171
aS'--msvc-project'
p172
asS'make'
p173
NsS'optimise-speed'
p174
NsS'internal'
p175
NsS'enable-stdinc'
p176
NsS'defines'
p177
NsS'deploy-only'
p178
NsS'x86'
p179
NsS'deploy'
p180
g4
sS'objc-arc'
p181
NsS'x86_run_exe'
p182
S'f:/marmalade/7.9/s3e\\win32\\s3e_simulator_debug.exe'
p183
sS'cxxflags'
p184
NsS'x86_rel_args'
p185
S'-via:"f:\\Users\\Teal\\Documents\\Marmalade\\words\\build_words_vc12x\\words_vc12x_release.via"'
p186
sS'gcc_rel_args'
p187
g13
sS'mips'
p188
NsS'xcode-build-settings'
p189
g4
sS'csprojPostBuildActions'
p190
NsS'incredibuild'
p191
NsS'strict-compile'
p192
NsS'use-auto-subdirs'
p193
NsS'mips_rel_exe'
p194
g44
sS'android_x86_rel_args'
p195
g13
sS'app-icf'
p196
NsS'deployargs'
p197
NsS'iosnativedebug'
p198
NsS'use_prebuilt'
p199
NsS'win-target-platform'
p200
g4
sS'mkf_in'
p201
(lp202
S'f:\\marmalade\\7.9\\s3e\\s3e-default.mkf'
p203
aS'f:\\marmalade\\7.9\\extensions\\s3eamazonads\\s3eamazonads.mkf'
p204
aS'f:\\marmalade\\7.9\\modules\\iwutil\\iwutil.mkf'
p205
aS'f:\\marmalade\\7.9\\modules\\third_party\\libjpeg\\libjpeg.mkf'
p206
aS'f:\\marmalade\\7.9\\modules\\third_party\\libpng\\libpng.mkf'
p207
aS'f:\\marmalade\\7.9\\modules\\third_party\\zlib\\zlib.mkf'
p208
aS'f:\\marmalade\\7.9\\platform_libs\\android\\amazon-ads-android-sdk\\amazon-ads-android-sdk.mkf'
p209
aS'f:\\marmalade\\7.9\\platform_libs\\iphone\\amazon-ads-ios-sdk\\amazon-ads-ios-sdk.mkf'
p210
aS'f:\\marmalade\\7.9\\modules\\iw2dscenegraphcore\\iw2dscenegraphcore.mkf'
p211
aS'f:\\marmalade\\7.9\\modules\\iw2dscenegraph\\iw2dscenegraph.mkf'
p212
aS'f:\\marmalade\\7.9\\modules\\iw2d\\iw2d.mkf'
p213
aS'f:\\marmalade\\7.9\\modules\\iwgx\\iwgx.mkf'
p214
aS'f:\\marmalade\\7.9\\modules\\iwgl\\iwgl.mkf'
p215
aS'f:\\marmalade\\7.9\\modules\\iwgeom\\iwgeom.mkf'
p216
aS'f:\\marmalade\\7.9\\modules\\iwresmanager\\iwresmanager.mkf'
p217
aS'f:\\marmalade\\7.9\\extensions\\pvrtextool\\pvrtextool.mkf'
p218
aS'f:\\marmalade\\7.9\\modules\\iwgxfont\\iwgxfont.mkf'
p219
aS'f:\\marmalade\\7.9\\modules\\third_party\\tiniconv\\tiniconv.mkf'
p220
aS'f:\\marmalade\\7.9\\modules\\iwtween\\iwtween.mkf'
p221
asS'strict-mkb'
p222
NsS'executeargs'
p223
NsS'clean'
p224
NsS'no-asm'
p225
NsS'output-name'
p226
g4
sS'no-modules'
p227
NsS'find_define'
p228
g4
s(dp229
S'f:\\marmalade\\7.9\\s3e\\makefile_builder\\plugins\\win10_win10.pyc'
p230
F1442188394.0
sS'f:\\marmalade\\7.9\\s3e\\makefile_builder\\plugins\\Emitter.pyc'
p231
F1442188334.0
sS'f:\\marmalade\\7.9\\s3e\\makefile_builder\\plugins\\vc7_utils.pyc'
p232
F1442188328.0
sS'f:\\marmalade\\7.9\\s3e\\makefile_builder\\plugins\\s3e_vc6.pyc'
p233
F1442188298.0
sS'f:\\marmalade\\7.9\\s3e\\makefile_builder\\mkb_launcher.exe'
p234
F1442186198.0
sS'f:\\marmalade\\7.9\\s3e\\makefile_builder\\plugins\\iphone.pyc'
p235
F1442188360.0
sS'f:\\marmalade\\7.9\\s3e\\makefile_builder\\plugins\\java.pyc'
p236
F1442188332.0
sS'f:\\marmalade\\7.9\\s3e\\makefile_builder\\docs\\deployment_options.txt'
p237
F1442184876.0
sS'f:\\marmalade\\7.9\\s3e\\makefile_builder\\templates\\wp81_vcxproj.pyc'
p238
F1442188320.0
sS'f:\\marmalade\\7.9\\s3e\\makefile_builder\\docs\\deprecated.defines.txt'
p239
F1442184876.0
sS'f:\\marmalade\\7.9\\s3e\\makefile_builder\\templates\\wp81_ext_csproj.pyc'
p240
F1442188392.0
sS'f:\\marmalade\\7.9\\s3e\\makefile_builder\\templates\\win10_ext_csproj.pyc'
p241
F1442188282.0
sS'f:\\marmalade\\7.9\\s3e\\makefile_builder\\plugins\\ws81_ws81.pyc'
p242
F1442188342.0
sS'f:\\marmalade\\7.9\\s3e\\makefile_builder\\nacl.mkf'
p243
F1442184876.0
sS'f:\\marmalade\\7.9\\s3e\\makefile_builder\\docs\\options.txt'
p244
F1442184876.0
sS'f:\\marmalade\\7.9\\s3e\\makefile_builder\\templates\\win32_vcproj.pyc'
p245
F1442188384.0
sS'f:\\marmalade\\7.9\\s3e\\makefile_builder\\plugins\\wp81_wp81.pyc'
p246
F1442188282.0
sS'f:\\marmalade\\7.9\\s3e\\makefile_builder\\plugins\\XcodeEmitter.py'
p247
F1442184876.0
sS'f:\\marmalade\\7.9\\s3e\\makefile_builder\\templates\\xcode_pbxuser.py'
p248
F1442184878.0
sS'f:\\marmalade\\7.9\\s3e\\makefile_builder\\plugins\\s3e_ws8.pyc'
p249
F1442188392.0
sS'f:\\marmalade\\7.9\\s3e\\makefile_builder\\plugins'
p250
F1442683047.2124228
sS'f:\\marmalade\\7.9\\s3e\\makefile_builder\\templates\\win8_ext_csproj.pyc'
p251
F1442188330.0
sS'f:\\marmalade\\7.9\\s3e\\makefile_builder\\templates\\template.suo'
p252
F1442184876.0
sS'f:\\marmalade\\7.9\\s3e\\makefile_builder\\plugins\\s3e_qmake.pyc'
p253
F1442683046.5063896
sS'f:\\marmalade\\7.9\\s3e\\makefile_builder\\templates\\MainWindow.xib'
p254
F1442184876.0
sS'f:\\marmalade\\7.9\\s3e\\makefile_builder\\docs\\deprecated.options.txt'
p255
F1442184876.0
sS'f:\\marmalade\\7.9\\s3e\\makefile_builder\\templates\\vc7_suo.pyc'
p256
F1442188386.0
sS'f:\\marmalade\\7.9\\s3e\\makefile_builder\\templates'
p257
F1442633881.4478593
sS'f:\\marmalade\\7.9\\s3e\\makefile_builder\\mkb_upstream.pyc'
p258
F1442188348.0
sS'f:\\marmalade\\7.9\\s3e\\makefile_builder\\plugins\\wp8_wp8.pyc'
p259
F1442188356.0
sS'f:\\marmalade\\7.9\\s3e\\makefile_builder\\templates\\make.py'
p260
F1442184876.0
sS'f:\\marmalade\\7.9\\s3e\\makefile_builder\\deployment.pyc'
p261
F1442188360.0
sS'f:\\marmalade\\7.9\\s3e\\makefile_builder\\templates\\xcode4.xcscheme'
p262
F1442184878.0
sS'f:\\marmalade\\7.9\\s3e\\makefile_builder\\plugins\\s3e_wp81.pyc'
p263
F1442188386.0
sS'f:\\marmalade\\7.9\\s3e\\makefile_builder\\plugins\\s3e_wp8.pyc'
p264
F1442188386.0
sS'f:\\marmalade\\7.9\\s3e\\makefile_builder\\plugins\\win32_vc6.pyc'
p265
F1442188312.0
sS'f:\\marmalade\\7.9\\s3e\\makefile_builder\\plugins\\s3e_make.pyc'
p266
F1442188274.0
sS'f:\\marmalade\\7.9\\s3e\\makefile_builder\\templates\\linker_script'
p267
F1442184876.0
sS'f:\\marmalade\\7.9\\s3e\\makefile_builder\\templates\\vc8_user.pyc'
p268
F1442188356.0
sS'f:\\marmalade\\7.9\\s3e\\makefile_builder\\mkb_parser.pyc'
p269
F1442188320.0
sS'f:\\marmalade\\7.9\\s3e\\makefile_builder\\templates\\ws81_ext_sln.pyc'
p270
F1442188312.0
sS'f:\\marmalade\\7.9\\s3e\\makefile_builder\\docs\\mkb.defines.txt'
p271
F1442184876.0
sS'f:\\marmalade\\7.9\\s3e\\makefile_builder\\mkb_util.pyc'
p272
F1442188324.0
sS'f:\\marmalade\\7.9\\s3e\\makefile_builder\\plugins\\osx_scons.pyc'
p273
F1442188300.0
sS'f:\\marmalade\\7.9\\s3e\\makefile_builder\\templates\\win10_ext_sln.pyc'
p274
F1442188288.0
sS'f:\\marmalade\\7.9\\s3e\\makefile_builder\\templates\\mips_linker_script'
p275
F1442184876.0
sS'f:\\marmalade\\7.9\\s3e\\makefile_builder\\templates\\ws8_vcxproj.pyc'
p276
F1442188402.0
sS'f:\\marmalade\\7.9\\s3e\\makefile_builder\\templates\\win8_vcxproj.pyc'
p277
F1442188408.0
sS'f:\\marmalade\\7.9\\s3e\\makefile_builder\\templates\\win32_dsw.pyc'
p278
F1442188280.0
sS'f:\\marmalade\\7.9\\s3e\\makefile_builder\\templates\\vc6_opt.pyc'
p279
F1442188392.0
sS'f:\\marmalade\\7.9\\s3e\\makefile_builder\\docs\\parse_options.pyc'
p280
F1442188398.0
sS'f:\\marmalade\\7.9\\s3e\\makefile_builder\\templates\\win32_dsp.pyc'
p281
F1442188398.0
sS'f:\\marmalade\\7.9\\s3e\\makefile_builder\\templates\\wp8_sln.pyc'
p282
F1442188298.0
sS'f:\\marmalade\\7.9\\s3e\\makefile_builder\\plugins\\ws8_ws8.pyc'
p283
F1442188384.0
sS'f:\\marmalade\\7.9\\s3e\\makefile_builder\\mkb_globals.pyc'
p284
F1442188374.0
sS'f:\\marmalade\\7.9\\s3e\\makefile_builder\\plugins\\vc6_utils.pyc'
p285
F1442188390.0
sS'f:\\marmalade\\7.9\\s3e\\makefile_builder\\plugins\\SConsEmitter.pyc'
p286
F1442188314.0
sS'f:\\marmalade\\7.9\\s3e\\makefile_builder\\templates\\wp81_csproj.pyc'
p287
F1442188332.0
sS'f:\\marmalade\\7.9\\s3e\\makefile_builder\\plugins\\XcodeEmitter.pyc'
p288
F1442683045.6890662
sS'f:\\marmalade\\7.9\\s3e\\makefile_builder\\templates\\ws81_csproj.pyc'
p289
F1442188316.0
sS'f:\\marmalade\\7.9\\s3e\\makefile_builder\\plugins\\s3e_web.pyc'
p290
F1442188338.0
sS'f:\\marmalade\\7.9\\s3e\\makefile_builder\\plugins\\s3e_xcode.py'
p291
F1442184876.0
sS'f:\\marmalade\\7.9\\s3e\\makefile_builder\\templates\\wp8_csproj_user.pyc'
p292
F1442188364.0
sS'f:\\marmalade\\7.9\\s3e\\makefile_builder\\templates\\wp8_csproj.pyc'
p293
F1442188398.0
sS'f:\\marmalade\\7.9\\s3e\\makefile_builder\\templates\\win8_csproj_user.pyc'
p294
F1442188298.0
sS'f:\\marmalade\\7.9\\s3e\\makefile_builder\\templates\\qmake.py'
p295
F1442184876.0
sS'f:\\marmalade\\7.9\\s3e\\makefile_builder\\templates\\vc10_user.pyc'
p296
F1442188376.0
sS'f:\\marmalade\\7.9\\s3e\\makefile_builder\\plugins\\deploy.pyc'
p297
F1442188336.0
sS'f:\\marmalade\\7.9\\s3e\\makefile_builder\\docs'
p298
F1442633879.3929887
sS'f:\\marmalade\\7.9\\s3e\\makefile_builder\\mkb_option.pyc'
p299
F1442188280.0
sS'f:\\marmalade\\7.9\\s3e\\makefile_builder\\templates\\win10_csproj_user.pyc'
p300
F1442188326.0
sS'f:\\marmalade\\7.9\\s3e\\makefile_builder\\templates\\xcode.py'
p301
F1442184878.0
sS'f:\\marmalade\\7.9\\s3e\\makefile_builder\\plugins\\s3e_xcode.pyc'
p302
F1442683047.2164235
sS'f:\\marmalade\\7.9\\s3e\\makefile_builder\\templates\\rvct_linker_script'
p303
F1442184876.0
sS'f:\\marmalade\\7.9\\s3e\\makefile_builder\\mkb.py'
p304
F1442184876.0
sS'f:\\marmalade\\7.9\\s3e\\makefile_builder\\templates\\win10_sln.pyc'
p305
F1442188396.0
sS'f:\\marmalade\\7.9\\s3e\\makefile_builder\\plugins\\xcode4_schememanagement.pyc'
p306
F1442683045.798074
sS'f:\\marmalade\\7.9\\s3e\\makefile_builder\\plugins\\osx_xcode.pyc'
p307
F1442188290.0
sS'f:\\marmalade\\7.9\\s3e\\makefile_builder\\templates\\ws8_sln.pyc'
p308
F1442188388.0
sS'f:\\marmalade\\7.9\\s3e\\makefile_builder\\templates\\win10_vcxproj.pyc'
p309
F1442188326.0
sS'f:\\marmalade\\7.9\\s3e\\makefile_builder\\templates\\wp81_sln.pyc'
p310
F1442188336.0
sS'f:\\marmalade\\7.9\\s3e\\makefile_builder\\templates\\template.opt'
p311
F1442184876.0
sS'f:\\marmalade\\7.9\\s3e\\makefile_builder\\mkb_main.pyc'
p312
F1442188334.0
sS'f:\\marmalade\\7.9\\s3e\\makefile_builder\\templates\\win8_csproj.pyc'
p313
F1442188412.0
sS'f:\\marmalade\\7.9\\s3e\\makefile_builder\\templates\\Info.plist'
p314
F1442184876.0
sS'f:\\marmalade\\7.9\\s3e\\makefile_builder\\plugins\\Win8Emitter.pyc'
p315
F1442188356.0
sS'f:\\marmalade\\7.9\\s3e\\makefile_builder\\templates\\gdb_start.txt'
p316
F1442184876.0
sS'f:\\marmalade\\7.9\\s3e\\makefile_builder\\templates\\win32_vcxproj_filters.pyc'
p317
F1442188298.0
sS'f:\\marmalade\\7.9\\s3e\\makefile_builder\\templates\\aarch64_linker_script'
p318
F1442184876.0
sS'f:\\marmalade\\7.9\\s3e\\makefile_builder\\plugins\\null.pyc'
p319
F1442188344.0
sS'f:\\marmalade\\7.9\\s3e\\makefile_builder\\plugins\\s3e_win10.pyc'
p320
F1442188328.0
sS'f:\\marmalade\\7.9\\s3e\\makefile_builder\\templates\\ws81_csproj_user.pyc'
p321
F1442188394.0
sS'f:\\marmalade\\7.9\\s3e\\makefile_builder\\templates\\ws8_csproj_user.pyc'
p322
F1442188284.0
sS'f:\\marmalade\\7.9\\s3e\\makefile_builder\\plugins\\VisualStudioEmitter.pyc'
p323
F1442188332.0
sS'f:\\marmalade\\7.9\\s3e\\makefile_builder\\templates\\scons.pyc'
p324
F1442188404.0
sS'f:\\marmalade\\7.9\\s3e\\makefile_builder\\plugins\\s3e_scons.pyc'
p325
F1442188348.0
sS'f:\\marmalade\\7.9\\s3e\\makefile_builder\\templates\\xcode4_DeployTool.xcscheme'
p326
F1442184878.0
sS'f:\\marmalade\\7.9\\s3e\\makefile_builder\\plugins\\s3e_ws81.pyc'
p327
F1442188396.0
sS'f:\\marmalade\\7.9\\s3e\\makefile_builder\\templates\\qmake_user.py'
p328
F1442184876.0
sS'f:\\marmalade\\7.9\\s3e\\makefile_builder\\templates\\ws81_sln.pyc'
p329
F1442188388.0
sS'f:\\marmalade\\7.9\\s3e\\makefile_builder\\templates\\ws8_ext_sln.pyc'
p330
F1442188286.0
sS'f:\\marmalade\\7.9\\s3e\\makefile_builder\\templates\\wp81_ext_sln.pyc'
p331
F1442188318.0
sS'f:\\marmalade\\7.9\\s3e\\makefile_builder\\plugins\\s3e_win8.pyc'
p332
F1442188316.0
sS'f:\\marmalade\\7.9\\s3e\\makefile_builder\\templates\\ws8_ext_csproj.pyc'
p333
F1442188298.0
sS'f:\\marmalade\\7.9\\s3e\\makefile_builder\\plugins\\linux_scons.pyc'
p334
F1442188406.0
sS'f:\\marmalade\\7.9\\s3e\\makefile_builder\\plugins\\S3EEmitter.pyc'
p335
F1442188394.0
sS'f:\\marmalade\\7.9\\s3e\\makefile_builder\\plugins\\xcode4_schememanagement.py'
p336
F1442184876.0
sS'f:\\marmalade\\7.9\\s3e\\makefile_builder\\templates\\wp8_vcxproj.pyc'
p337
F1442188332.0
sS'f:\\marmalade\\7.9\\s3e\\makefile_builder\\plugins\\s3e_qmake.py'
p338
F1442184876.0
sS'f:\\marmalade\\7.9\\s3e\\makefile_builder\\templates\\win8_sln.pyc'
p339
F1442188316.0
sS'f:\\marmalade\\7.9\\s3e\\makefile_builder\\templates\\win10_csproj.pyc'
p340
F1442188406.0
sS'f:\\marmalade\\7.9\\s3e\\makefile_builder\\plugins\\MakeEmitter.pyc'
p341
F1442188330.0
sS'f:\\marmalade\\7.9\\s3e\\makefile_builder\\templates\\win32_vcxproj.pyc'
p342
F1442188390.0
sS'f:\\marmalade\\7.9\\s3e\\makefile_builder\\templates\\wp81_csproj_user.pyc'
p343
F1442188334.0
sS'f:\\marmalade\\7.9\\s3e\\makefile_builder\\templates\\ws81_vcxproj.pyc'
p344
F1442188370.0
sS'f:\\marmalade\\7.9\\s3e\\makefile_builder\\templates\\ws8_csproj.pyc'
p345
F1442188370.0
sS'f:\\marmalade\\7.9\\s3e\\makefile_builder\\templates\\xcode4_arm.xcscheme'
p346
F1442184878.0
sS'f:\\marmalade\\7.9\\s3e\\makefile_builder\\templates\\ws81_ext_csproj.pyc'
p347
F1442188364.0
sS'f:\\marmalade\\7.9\\s3e\\makefile_builder\\tool_launcher.exe'
p348
F1442186198.0
sS'f:\\marmalade\\7.9\\s3e\\makefile_builder\\templates\\win32_sln.pyc'
p349
F1442188406.0
sS'f:\\marmalade\\7.9\\s3e\\makefile_builder\\templates\\wp8_ext_csproj.pyc'
p350
F1442188412.0
sS'f:\\marmalade\\7.9\\s3e\\makefile_builder\\plugins\\win8_utils.pyc'
p351
F1442188388.0
sccopy_reg
_reconstructor
p352
(cmkb_main
MkbFile
p353
c__builtin__
object
p354
Ntp355
Rp356
(dp357
g5
(lp358
sS'target_name'
p359
S'words'
p360
sS'current_file'
p361
g141
sS'package_path'
p362
(lp363
sS'post_build'
p364
(lp365
(lp366
S'f:/marmalade/7.9/s3e/tools'
p367
aS'F:\\Marmalade\\7.9\\s3e\\python\\python.exe .\\process_map.py "$(TargetPath)"'
p368
aa(S'f:\\marmalade\\7.9\\s3e\\bin'
p369
S'"s3e_plink" -l "$(TargetPath)" '
p370
g179
tp371
asS'librarys'
p372
(lp373
g352
(cmkb_main
Library
p374
g354
Ntp375
Rp376
(dp377
S'name'
p378
S'vc6_compat.lib'
p379
sS'expand_name'
p380
I00
sS'include_spec_rvct_objs'
p381
(lp382
sS'include_all_objs'
p383
I00
sS'share_arm'
p384
I00
sS'arch'
p385
S'x86'
p386
sS'nodebug'
p387
I00
sg40
Nsbag352
(g374
g354
Ntp388
Rp389
(dp390
g378
S'iwutil'
p391
sg380
I01
sg381
(lp392
sg383
Nsg384
Nsg385
Nsg387
I00
sg40
Nsbag352
(g374
g354
Ntp393
Rp394
(dp395
g378
S'jpeg'
p396
sg380
I01
sg381
g392
sg383
Nsg384
Nsg385
Nsg387
I00
sg40
Nsbag352
(g374
g354
Ntp397
Rp398
(dp399
g378
S'z'
p400
sg380
I01
sg381
g392
sg383
Nsg384
Nsg385
Nsg387
I00
sg40
Nsbag352
(g374
g354
Ntp401
Rp402
(dp403
g378
S'png'
p404
sg380
I01
sg381
g392
sg383
Nsg384
Nsg385
Nsg387
I00
sg40
Nsbag352
(g374
g354
Ntp405
Rp406
(dp407
g378
S'iw2d'
p408
sg380
I01
sg381
g392
sg383
Nsg384
Nsg385
Nsg387
I00
sg40
Nsbag352
(g374
g354
Ntp409
Rp410
(dp411
g378
S'ATI_Compress_MT_VC7.lib'
p412
sg380
I00
sg381
g392
sg383
Nsg384
Nsg385
S'x86'
p413
sg387
I00
sg40
Nsbag352
(g374
g354
Ntp414
Rp415
(dp416
g378
S'iwgx'
p417
sg380
I01
sg381
g392
sg383
Nsg384
Nsg385
Nsg387
I00
sg40
Nsbag352
(g374
g354
Ntp418
Rp419
(dp420
g378
S'iwgl'
p421
sg380
I01
sg381
g392
sg383
Nsg384
Nsg385
Nsg387
I00
sg40
Nsbag352
(g374
g354
Ntp422
Rp423
(dp424
g378
S'iwgeom'
p425
sg380
I01
sg381
g392
sg383
Nsg384
Nsg385
Nsg387
I00
sg40
Nsbag352
(g374
g354
Ntp426
Rp427
(dp428
g378
S'iwresmanager'
p429
sg380
I01
sg381
g392
sg383
Nsg384
Nsg385
Nsg387
I00
sg40
Nsbag352
(g374
g354
Ntp430
Rp431
(dp432
g378
S'iwgxfont'
p433
sg380
I01
sg381
g392
sg383
Nsg384
Nsg385
Nsg387
I00
sg40
Nsbag352
(g374
g354
Ntp434
Rp435
(dp436
g378
S'tiniconv'
p437
sg380
I01
sg381
g392
sg383
Nsg384
Nsg385
Nsg387
I00
sg40
Nsbag352
(g374
g354
Ntp438
Rp439
(dp440
g378
S's3e_cpp'
p441
sg380
I01
sg381
g382
sg383
I00
sg384
I00
sg385
Nsg387
I00
sg40
Nsbag352
(g374
g354
Ntp442
Rp443
(dp444
g378
S's3e_vc12'
p445
sg380
I01
sg381
(lp446
S'iwcrt.o'
p447
asg383
I00
sg384
I00
sg385
S'x86'
p448
sg387
I00
sg40
Nsbag352
(g374
g354
Ntp449
Rp450
(dp451
g378
S's3e'
p452
sg380
I01
sg381
(lp453
g447
asg383
I00
sg384
I00
sg385
S'!x86'
p454
sg387
I00
sg40
Nsbag352
(g374
g354
Ntp455
Rp456
(dp457
g378
g57
sg380
I01
sg381
g382
sg383
I00
sg384
I00
sg385
S'x86'
p458
sg387
I01
sg40
Nsbag352
(g374
g354
Ntp459
Rp460
(dp461
g378
g57
sg380
I01
sg381
g382
sg383
I00
sg384
I00
sg385
S'!x86'
p462
sg387
I01
sg40
Nsbag352
(g374
g354
Ntp463
Rp464
(dp465
g378
S'stdc++'
p466
sg380
I00
sg381
g382
sg383
I00
sg384
I00
sg385
S'mips'
p467
sg387
I00
sg40
Nsbag352
(g374
g354
Ntp468
Rp469
(dp470
g378
S'c'
p471
sg380
I00
sg381
g382
sg383
I00
sg384
I00
sg385
S'mips'
p472
sg387
I00
sg40
Nsbag352
(g374
g354
Ntp473
Rp474
(dp475
g378
S'm'
p476
sg380
I00
sg381
g382
sg383
I00
sg384
I00
sg385
S'mips'
p477
sg387
I00
sg40
Nsbag352
(g374
g354
Ntp478
Rp479
(dp480
g378
S'gcc'
p481
sg380
I00
sg381
g382
sg383
I00
sg384
I00
sg385
S'mips'
p482
sg387
I00
sg40
Nsbag352
(g374
g354
Ntp483
Rp484
(dp485
g378
g481
sg380
I00
sg381
g382
sg383
I00
sg384
I00
sg385
S'naclx86_64'
p486
sg387
I00
sg40
Nsbag352
(g374
g354
Ntp487
Rp488
(dp489
g378
S'gcc_eh'
p490
sg380
I00
sg381
g382
sg383
I00
sg384
I00
sg385
S'naclx86_64'
p491
sg387
I00
sg40
Nsbag352
(g374
g354
Ntp492
Rp493
(dp494
g378
g471
sg380
I00
sg381
g382
sg383
I00
sg384
I00
sg385
S'naclx86_64'
p495
sg387
I00
sg40
Nsbag352
(g374
g354
Ntp496
Rp497
(dp498
g378
g476
sg380
I00
sg381
g382
sg383
I00
sg384
I00
sg385
S'naclx86_64'
p499
sg387
I00
sg40
Nsbag352
(g374
g354
Ntp500
Rp501
(dp502
g378
S'supc++'
p503
sg380
I00
sg381
g382
sg383
I00
sg384
I00
sg385
S'naclx86_64'
p504
sg387
I00
sg40
Nsbag352
(g374
g354
Ntp505
Rp506
(dp507
g378
S'supc++'
p508
sg380
I00
sg381
g382
sg383
I00
sg384
I00
sg385
S'gcc_x86_android'
p509
sg387
I00
sg40
Nsbag352
(g374
g354
Ntp510
Rp511
(dp512
g378
g471
sg380
I00
sg381
g382
sg383
I00
sg384
I00
sg385
S'gcc_x86_android'
p513
sg387
I00
sg40
Nsbag352
(g374
g354
Ntp514
Rp515
(dp516
g378
g476
sg380
I00
sg381
g382
sg383
I00
sg384
I00
sg385
S'gcc_x86_android'
p517
sg387
I00
sg40
Nsbag352
(g374
g354
Ntp518
Rp519
(dp520
g378
g481
sg380
I00
sg381
g382
sg383
I00
sg384
I00
sg385
S'gcc_x86_android'
p521
sg387
I00
sg40
Nsbag352
(g374
g354
Ntp522
Rp523
(dp524
g378
S'dl'
p525
sg380
I00
sg381
g382
sg383
I00
sg384
I00
sg385
S'gcc_x86_android'
p526
sg387
I00
sg40
NsbasS'library_paths'
p527
(lp528
g352
(cmkb_main
LibraryPath
p529
g354
Ntp530
Rp531
(dp532
S'expand_path'
p533
I01
sg378
S'f:/marmalade/7.9/modules/iwutil'
p534
sbag352
(g529
g354
Ntp535
Rp536
(dp537
g533
I01
sg378
S'f:/marmalade/7.9/modules/third_party/libjpeg'
p538
sbag352
(g529
g354
Ntp539
Rp540
(dp541
g533
I01
sg378
S'f:/marmalade/7.9/modules/third_party/zlib'
p542
sbag352
(g529
g354
Ntp543
Rp544
(dp545
g533
I01
sg378
S'f:/marmalade/7.9/modules/third_party/libpng'
p546
sbag352
(g529
g354
Ntp547
Rp548
(dp549
g533
I01
sg378
S'f:/marmalade/7.9/modules/iw2d'
p550
sbag352
(g529
g354
Ntp551
Rp552
(dp553
g533
I00
sg378
S'f:/marmalade/7.9/modules/iwgx/atitools'
p554
sbag352
(g529
g354
Ntp555
Rp556
(dp557
g533
I01
sg378
S'f:/marmalade/7.9/modules/iwgx'
p558
sbag352
(g529
g354
Ntp559
Rp560
(dp561
g533
I01
sg378
S'f:/marmalade/7.9/modules/iwgl'
p562
sbag352
(g529
g354
Ntp563
Rp564
(dp565
g533
I01
sg378
S'f:/marmalade/7.9/modules/iwgeom'
p566
sbag352
(g529
g354
Ntp567
Rp568
(dp569
g533
I01
sg378
S'f:/marmalade/7.9/modules/iwresmanager'
p570
sbag352
(g529
g354
Ntp571
Rp572
(dp573
g533
I01
sg378
S'f:/marmalade/7.9/modules/iwgxfont'
p574
sbag352
(g529
g354
Ntp575
Rp576
(dp577
g533
I01
sg378
S'f:/marmalade/7.9/modules/third_party/tiniconv'
p578
sbag352
(g529
g354
Ntp579
Rp580
(dp581
g533
I01
sg378
S'f:/marmalade/7.9/s3e'
p582
sbasS'macros'
p583
(dp584
S'IW_TRACE_CHANNEL_AMAZONADS'
p585
S'1'
p586
sS'IW_USE_CALLSTACK'
p587
NsS'IW_PLATFORM_S3E'
p588
NsS'I3D_PLATFORM_S3E'
p589
NsS'IW_MKF_IW2DSCENEGRAPHCORE'
p590
NsS'IW_TRACE_CHANNEL_AMAZONADS_VERBOSE'
p591
S'2'
p592
sS'IW_MKF_LIBJPEG'
p593
NsS'I3D_OS_S3E'
p594
NsS'IW_MKF_PVRTEXTOOL'
p595
NsS'IW_MKF_AMAZON_ADS_IOS_SDK'
p596
NsS'IW_MKF_TINICONV'
p597
NsS'IW_APP_VERSION'
p598
S'"1.0"'
p599
sS'__S3E__'
p600
NsS'IW_MKF_IWRESMANAGER'
p601
NsS'IW_MKF_FREELICENSE'
p602
NsS'IW_MKF_S3EAMAZONADS'
p603
NsS'IW_MKF_IWUTIL'
p604
NsS'IW_SDK'
p605
NsS'IW_MKF_AMAZON_ADS_ANDROID_SDK'
p606
NsS'IW_ASSERTION_CHANNEL_2D'
p607
g586
sS'IW_APP_NAME'
p608
S'"words"'
p609
sS'IW_MKF_S3E_DEFAULT'
p610
NsS'IW_MKF_IWGXFONT'
p611
NsS'IW_MKF_IWTWEEN'
p612
NsS'IW_MKF_ZLIB'
p613
NsS'IW_MKF_IWGX'
p614
NsS'IW_MKF_IW2DSCENEGRAPH'
p615
NsS'IW_ASSERTION_CHANNEL_AMAZONADS'
p616
g586
sS'IW_USE_ASSERTIONS'
p617
NsS'_CRT_SECURE_NO_DEPRECATE'
p618
NsS'IW_MKF_IWGL'
p619
NsS'IW_MKF_LIBPNG'
p620
NsS'IW_TRACE_CHANNEL_IW_2DSCENEGRAPH'
p621
g586
sS'IW_DEBUG'
p622
NsS'IW_USE_TRACING'
p623
NsS'IW_ASSERTION_CHANNEL_IW_2DSCENEGRAPH'
p624
g586
sS'IW_TRACE_CHANNEL_PVRTEXTOOL'
p625
g586
sS'S3E_INCLUDE_LEGACY'
p626
NsS'IW_TRACE_CHANNEL_PVRTEXTOOL_VERBOSE'
p627
g592
sS'IW_MKF_IW2D'
p628
NsS'IW_MKF_IWGEOM'
p629
NsS'IW_ASSERTION_CHANNEL_PVRTEXTOOL'
p630
g586
ssS'done_warnings'
p631
(dp632
sS'subprojects'
p633
(dp634
g221
S'iwtween'
p635
sg218
S'PVRTexTool'
p636
sg207
S'libpng'
p637
sg204
S's3eAmazonAds'
p638
sg213
S'iw2d'
p639
sg214
S'iwgx'
p640
sg208
S'zlib'
p641
sg209
S'amazon-ads-android-sdk'
p642
sg205
S'iwutil'
p643
sg210
S'amazon-ads-ios-sdk'
p644
sg216
S'iwgeom'
p645
sg219
S'iwgxfont'
p646
sg211
S'iw2dscenegraphcore'
p647
sg203
S's3e-default.mkf'
p648
sg206
S'libjpeg'
p649
sg217
S'iwresmanager'
p650
sg212
S'iw2dscenegraph'
p651
sg215
S'iwgl'
p652
sg220
S'tiniconv'
p653
ssS'deployments'
p654
(dp655
S'Default'
p656
g352
(cdeployment
Deployment
p657
g354
Ntp658
Rp659
(dp660
S'got_version'
p661
I0
sS'assets'
p662
g656
sS'mkb'
p663
g356
sS'target'
p664
Nsg385
(lp665
sS'options'
p666
(dp667
S'iphone-link-lib'
p668
(lp669
S's3eAmazonAds'
p670
asS'game-icf'
p671
NsS'android-tm'
p672
NsS'winmobile-icon32'
p673
NsS'ws8-logo-image150x150'
p674
NsS'wp81-logo-image150x150'
p675
NsS'win10-product-name'
p676
NsS'android-keystore'
p677
NsS'osx-ext-dll'
p678
(lp679
S'f:/marmalade/7.9/extensions/pvrtextool/lib/osx/libPVRTexTool.dylib'
p680
asS'iphone-provisioning-profile'
p681
NsS'win10-identity-name'
p682
NsS'ws8-splash-screen-image620x300'
p683
NsS'wp81-extra-pri'
p684
(lp685
sS'ws8-ext-capabilities'
p686
(lp687
sS'android-icon-hdpi'
p688
NsS'iphone-ipad-only'
p689
NsS'iphone-splash-full-orient'
p690
NsS'wp8-tile-fliptemplate-supports-large'
p691
NsS'iphone-show-status-bar'
p692
NsS'roku-requires-mkv'
p693
NsS'long-caption'
p694
NsS'android-pkgname'
p695
NsS'ws8-ext-native-only-dll'
p696
(lp697
sS'wp81-publisher-display-name'
p698
NsS'win10-logo-image150x150'
p699
NsS'blackberry-permissions-read-device-identifying-information'
p700
NsS'ws81-certificate-end-date'
p701
NsS'psp-dlgcontentid'
p702
NsS'android-version-code'
p703
NsS'win10-ext-uap-capabilities'
p704
(lp705
sS'iphone-minimum-ios-version'
p706
NsS'target-folder'
p707
NsS'tizen-dist1-CA-path'
p708
NsS'symbian-icon2-format'
p709
NsS'tizen-author-key'
p710
NsS'firefoxos-icon-128X128'
p711
NsS'iphone-region'
p712
NsS'uiq3-icon3-mask'
p713
NsS'brew-encoding'
p714
NsS'version'
p715
NsS'nds-initialcode'
p716
NsS'win10-ext-native-dll'
p717
(lp718
sS'iphone-persistent-wifi'
p719
NsS'psp-snd0'
p720
NsS'roku-icon-focus-hd'
p721
NsS'osx-appid'
p722
NsS'ws81-ext-native-only-dll'
p723
(lp724
sS'winmobile-install-folder'
p725
NsS'android-external-res'
p726
(lp727
sS'ws8-product-version'
p728
NsS'brew-priviledges'
p729
NsS'iphone-icon-ipad-search'
p730
NsS'iphone-icon-ipad'
p731
NsS'iphone-skip-icon-generation'
p732
NsS'nacl-icon-128X128'
p733
NsS'roku-hidden'
p734
NsS'psp-titlename'
p735
NsS'wp81-product-version'
p736
NsS'symbian-icon1-mask'
p737
NsS'psp-parentallevel'
p738
NsS'iphone-launch-storyboard'
p739
NsS'splashscreen-use-all'
p740
NsS'symbian-disable-ecompxl'
p741
NsS'splashscreen-auto-onblack'
p742
NsS'iphone-icon-dir'
p743
NsS'iphone-icon-extra'
p744
NsS'win32-ext-dll'
p745
(lp746
S'f:/marmalade/7.9/extensions/pvrtextool/lib/win32/PVRTexTool.dll'
p747
asS'iphone-development-key'
p748
NsS'winmobile-icon48'
p749
NsS'android-unsigned'
p750
NsS'osx-appstore-category'
p751
NsS'version-revision'
p752
NsS'roku-icon-focus-sd'
p753
NsS'ws81-product-version'
p754
NsS'winmobile-png90'
p755
NsS'iphone-icon-ipad-high-res'
p756
NsS'iphone-disable-ipad'
p757
NsS'win10-ext-sdk-ref'
p758
(lp759
sS'ws81-splash-screen-background'
p760
NsS'wp8-ext-capabilities'
p761
(lp762
sS'brew-icon-large'
p763
NsS'symbian-icon1-mask-black'
p764
NsS'ws8-extra-res'
p765
(lp766
sS'iphone-bundle-localisations'
p767
NsS'winmobile-png60'
p768
NsS'blackberry-permissions-access-shared'
p769
NsS'blackberry-author'
p770
NsS'android-icon-xxxhdpi'
p771
NsS'olddeploytoolstyle'
p772
NsS'android_icon_gallery'
p773
NsS'win10-distribution-pfx-password'
p774
NsS'wp81-splash-screen-background'
p775
NsS'wp8-exclude-720p'
p776
NsS'iphone-info-plist'
p777
NsS'ws81-ext-managed-dll'
p778
(lp779
sS'playbook-cskpass'
p780
NsS'win10-description'
p781
NsS'ws8-distribution-pfx-password'
p782
NsS'symbian-key'
p783
NsS'app-icf'
p784
NsS'blackberry-storepass'
p785
NsS'wp8-tile-fliptemplate-back-title'
p786
NsS'brew-compress-loader'
p787
NsS'iphone-testflight'
p788
NsS'win32-pref-windowposy'
p789
NsS'win32-pref-windowposx'
p790
NsS'roku-requires-audiometadata'
p791
NsS'wp8-exclude-low-mem'
p792
NsS'android-min-sdk-version'
p793
NsS'wp8-tile-fliptemplate-title'
p794
NsS'iphone-icon-ipad-search-high-res'
p795
NsS'iphone-link-libdir'
p796
(lp797
S'f:/marmalade/7.9/extensions/s3eamazonads/lib/iphone'
p798
asS'wp81-ext-capabilities'
p799
(lp800
sS'blackberry-permissions-read-geolocation'
p801
NsS'win10-splash-screen-image620x300'
p802
NsS'ws81-ext-device-capabilities'
p803
(lp804
sS'tizen-signed'
p805
NsS'android-extra-application-manifest'
p806
(lp807
S'f:/marmalade/7.9/extensions/s3eamazonads/source/android/ExtraAppManifests.xml'
p808
asS'android-x86'
p809
NsS'win10-extra-res'
p810
(lp811
sS'ws8-ext-native-dll'
p812
(lp813
sS'symbian-icon2-mask'
p814
NsS'iphone-launch-extra'
p815
NsS'webos-memory'
p816
NsS'android-keypass'
p817
NsS'name'
p818
NsS'uiq3-icon2-format'
p819
NsS'roku-splash-screen-sd'
p820
NsS'auto-derbh'
p821
NsS'roku-icon-side-sd'
p822
NsS'android-external-assets'
p823
(lp824
sS'nds-publicsavedatasize'
p825
NsS'splashscreen'
p826
NsS'wp8-product-id'
p827
NsS'iphone-icon-settings-high-res'
p828
NsS'android-manifest'
p829
NsS'ws81-splash-screen-image620x300'
p830
NsS'wp81-product-name'
p831
NsS's3e-compression'
p832
NsS'tizen-author-password'
p833
NsS'wp8-tile-fliptemplate-back-content'
p834
NsS'blackberry-extra-descriptor'
p835
(lp836
sS'android-java-source-version'
p837
NsS'symbian-icon1'
p838
NsS'symbian-icon2'
p839
NsS'nds-makercode'
p840
NsS'android-extra-styles-file'
p841
NsS'android-ext-target-sdk-version'
p842
(lp843
I17
asS'wp81-publisher-id'
p844
NsS'nds-bannertitle-jp'
p845
NsS'wp81-logo-image44x44'
p846
NsS'osx-sign-for-store'
p847
NsS'symbian7-uid'
p848
NsS'wp8-tile-fliptemplate-large-back-content'
p849
NsS'wp81-phone-publisher-id'
p850
NsS'nds-bannertitle-cn'
p851
NsS'iphone-distribution-key'
p852
NsS'win10-phone-publisher-id'
p853
NsS'android-icon-gallery'
p854
NsS'blackberry-keystore'
p855
NsS'iphone-nosign'
p856
NsS'caption'
p857
NsS'nacl-permissions'
p858
NsS'android-extra-manifest'
p859
(lp860
sS'wp81-ext-sdk-ref'
p861
(lp862
sS'android-icon-xxhdpi'
p863
NsS'version-minor'
p864
NsS'iphone-skip-launch-generation'
p865
NsS'iphone-link-libdirs'
p866
(lp867
sS'iphone-icon-large'
p868
NsS'symbian-keypwd'
p869
NsS'symbian8-uid'
p870
NsS'symbian-cert-key'
p871
NsS'winmobile-ampd-part-number'
p872
NsS'arch'
p873
NsS'nds-romheadertemplate'
p874
NsS'webos-icon'
p875
NsS'wp81-ext-device-capabilities'
p876
(lp877
sS'psp-dlgprotectdocument'
p878
NsS'ws8-splash-screen-background'
p879
NsS'android-icon-mdpi'
p880
NsS'android-sdk-build-tools-version'
p881
NsS'nds-icon'
p882
NsS'ws8-custom-manifest-fill'
p883
NsS'iphone-development-cert'
p884
NsS'symbian-icon2-mask-black'
p885
NsS'blackberry-phone-icon'
p886
NsS'iphone-enable-4inch-retina'
p887
NsS'ws8-custom-manifest'
p888
NsS'version-major'
p889
NsS'wp8-genre-isgame'
p890
NsS'uiq3-uid'
p891
NsS'iphone-splash-retina-generate'
p892
NsS'tizen-hw-acceleration'
p893
NsS'iphone_bundle_localisations'
p894
NsS'tizen-dist1-key'
p895
NsS'wp81-custom-manifest-fill'
p896
NsS'wp8-custom-manifest'
p897
NsS'nds-bannertitle-ge'
p898
NsS'iphone-sign-for-distribution'
p899
NsS'wp8-tile-fliptemplate-medium-back-image'
p900
NsS'wp8-publisher-id'
p901
NsS'icon'
p902
NsS'android-target-sdk-version'
p903
NsS'win10-ext-capabilities'
p904
(lp905
sS'wp8-exclude-wxga'
p906
NsS'wp81-identity-name'
p907
NsS'uiq3-icon2-mask'
p908
NsS'iphone-splashscreen-portrait'
p909
NsS'iphone-icon-high-res'
p910
NsS'ws81-distribution-pfx-password'
p911
NsS'playbook-author'
p912
NsS'wp8-custom-manifest-fill'
p913
NsS'linux-ext-lib'
p914
(lp915
sS'blackberry-permissions-access-internet'
p916
NsS'lgtv-use-drm'
p917
NsS'win10-splash-screen-image480x800'
p918
NsS'symbian-platsecflags'
p919
NsS'ws8-description'
p920
NsS'blackberry-playbook-icon'
p921
NsS'win10-distribution-cer'
p922
NsS'copyright'
p923
NsS'winmobile-cab-compress'
p924
NsS'win32-gles-directory'
p925
NsS'wp8-author'
p926
NsS'android-ext-min-sdk-version'
p927
(lp928
I4
asS'iphone-uiviewcontroller-based-status-bar'
p929
NsS'ws81-logo-image150x150'
p930
NsS'osx-signing-identity-app'
p931
NsS'tizen-project-url'
p932
NsS'symbian-icon-svg'
p933
NsS'android-aliasname'
p934
NsS'psp-dlgmanual'
p935
NsS'brew-uid'
p936
NsS'wp81-ext-native-only-dll'
p937
(lp938
sS'symbian-locationsupport'
p939
NsS'wp81-logo-image50x50'
p940
NsS'ws8-ext-managed-dll'
p941
(lp942
sS'nds-bannertitle-it'
p943
NsS'ws81-custom-manifest-fill'
p944
NsS'ws8-ext-sdk-manifest-part'
p945
(lp946
sS'uiq3-icon1-mask'
p947
NsS'winmobile-icon16'
p948
NsS'ws8-product-name'
p949
NsS'blackberry-cskpass'
p950
NsS'winmobile-start-menu-folder'
p951
NsS'brew-clsid'
p952
NsS'roku-requires-bluetooth'
p953
NsS'iphone-default-development-profile'
p954
NsS'ws8-ext-device-capabilities'
p955
(lp956
sS'blackberry-permissions-use-camera'
p957
NsS'ws81-extra-pri'
p958
(lp959
sS'iphone-prerendered-icon'
p960
NsS'iphone-appid'
p961
NsS'ws8-identity-name'
p962
NsS'tizen-dist2-CA-path'
p963
NsS'android-external-jars'
p964
(lp965
S'f:/marmalade/7.9/platform_libs/android/amazon-ads-android-sdk/third_party/lib/amazon-ads-5.5.149.jar'
p966
aS'f:/marmalade/7.9/extensions/s3eamazonads/lib/android/s3eAmazonAds.jar'
p967
asS'winmobile-icon64'
p968
NsS'blackberry-permissions-post-notification'
p969
NsS'winmobile-setup-dll'
p970
NsS'firefoxos-manifest'
p971
NsS'win8-winrt-extra-res'
p972
(lp973
sS'wp81-ext-sdk-manifest-part'
p974
(lp975
sS'symbian9-uid'
p976
NsS'iphone-icon-ipad-ios7'
p977
NsS'winmobile-trace-file'
p978
NsS'roku-splash-color'
p979
NsS'psp-appversion'
p980
NsS'android-java-target-version'
p981
NsS'ws8-publisher-id'
p982
NsS'win10-splash-screen-background'
p983
NsS'win10-product-id'
p984
NsS'win10-logo-image30x30'
p985
NsS'winmobile-png45'
p986
NsS'wp81-extra-res'
p987
(lp988
sS'android-storepass'
p989
NsS'nacl-icon-16X16'
p990
NsS'osx-signing-identity-inst'
p991
NsS'android-custom-activity'
p992
NsS'psp-discversion'
p993
NsS'wp81-ext-managed-dll'
p994
(lp995
sS'nacl-clear-user-data'
p996
NsS'psp-copyright'
p997
NsS'win10-ext-managed-dll'
p998
(lp999
sS'win10-logo-image50x50'
p1000
NsS'embed-icf'
p1001
NsS'tizen-manifest'
p1002
NsS'osx-icon'
p1003
NsS'webos-appinfo'
p1004
NsS'psp-dlghealthwarning'
p1005
NsS'webos-appid'
p1006
NsS'roku-icon-side-hd'
p1007
NsS'iphone-icon-ipad-search-high-res-ios7'
p1008
NsS'iphone-extra-plist'
p1009
(lp1010
sS'ws81-ext-sdk-manifest-part'
p1011
(lp1012
sS'loader_name_prefix'
p1013
NsS'iphone-launch-dir'
p1014
NsS'nds-titlename'
p1015
NsS'ws81-logo-image50x50'
p1016
NsS'wp81-custom-manifest'
p1017
NsS'osx-entitlements-plist'
p1018
NsS'win10-product-version'
p1019
NsS'psp-dlgicon0'
p1020
NsS'winmobile-nouninstall'
p1021
NsS'psp-discid'
p1022
NsS'tizen-dist2-password'
p1023
NsS'android-supports-gl-texture'
p1024
(lp1025
sS'ws8-ext-sdk-ref'
p1026
(lp1027
sS'iphone-extra-string'
p1028
(lp1029
sS'version-string'
p1030
NsS'iphone-icon-high-res-ios7'
p1031
NsS'ws8-certificate-end-date'
p1032
NsS'nacl-skip-zip'
p1033
NsS'win10-custom-manifest'
p1034
NsS'tizen-so'
p1035
(lp1036
sS'win10-logo-image44x44'
p1037
NsS'win10-custom-manifest-fill'
p1038
NsS'wp8-tile-fliptemplate-small-image'
p1039
NsS'win10-certificate-end-date'
p1040
NsS'playbook-authorid'
p1041
NsS'win10-publisher-id'
p1042
NsS'iphone-signing-identity'
p1043
NsS'roku-persist-quota'
p1044
NsS'nds-bannertitle-fr'
p1045
NsS'ws8-distribution-pfx'
p1046
NsS'ws8-publisher-display-name'
p1047
NsS'brew-icon-small'
p1048
NsS'psp-dlgpic2'
p1049
NsS'psp-dlgpic0'
p1050
NsS'win10-phone-product-id'
p1051
NsS'psp-pic0'
p1052
NsS'psp-pic1'
p1053
NsS'win32-pref-windowtitle'
p1054
NsS'psp-icon0'
p1055
NsS'psp-icon1'
p1056
NsS'ws81-identity-name'
p1057
NsS'win10-distribution-pfx'
p1058
NsS'winmobile-icon'
p1059
NsS'iphone-no-splash'
p1060
NsS'iphone-splash'
p1061
NsS'iphone-app-fonts'
p1062
NsS'wp8-ext-native-dll'
p1063
(lp1064
sS'wp81-splash-screen-image480x800'
p1065
NsS'ws81-distribution-cer'
p1066
NsS'win10-ext-sdk-manifest-part'
p1067
(lp1068
sS'uiq3-icon2'
p1069
NsS'uiq3-icon3'
p1070
NsS'uiq3-icon1'
p1071
NsS'uiq3-icon1-format'
p1072
NsS'ws8-logo-image50x50'
p1073
NsS'iphone-info-plist-override'
p1074
NsS'symbian-run-on-install'
p1075
NsS'wp81-description'
p1076
NsS'ws81-publisher-display-name'
p1077
NsS'android-version-name'
p1078
NsS'firefoxos-xulrunner'
p1079
NsS'symbian-soundrecordsupport'
p1080
NsS'iphone-backgroundmode-audio'
p1081
NsS'nds-bannertitle-sp'
p1082
NsS'win10-extra-pri'
p1083
(lp1084
sS'psp-producer'
p1085
NsS'iphone-apple-wwdr-cert'
p1086
NsS'android-icon-nonstandard'
p1087
NsS'win32-pref-processtitle'
p1088
NsS'android-icon-xhdpi'
p1089
NsS'nds-bannertitle-hn'
p1090
NsS'tizen-dist2-key'
p1091
NsS'brew-depends'
p1092
NsS'ws81-custom-manifest'
p1093
NsS'iphone-allow-launch-rotation'
p1094
NsS'brew-mif'
p1095
NsS'iphone-icon-ipad-search-ios7'
p1096
NsS'brew-icon-medium'
p1097
NsS'iphone-bundle-url-name'
p1098
NsS'wp8-tile-fliptemplate-large-front-image'
p1099
NsS'tizen-dist2-CA-root-path'
p1100
NsS'ws81-description'
p1101
NsS'uiq3-icon3-format'
p1102
NsS'win10-publisher-display-name'
p1103
NsS'ws81-logo-image30x30'
p1104
NsS'win10-ext-device-capabilities'
p1105
(lp1106
sS'win8-phone-extra-res'
p1107
(lp1108
sS'iphone-signing-host'
p1109
NsS'tizen-icon'
p1110
NsS'osx-info-plist'
p1111
NsS'symbian-icon1-format'
p1112
NsS'ws81-distribution-pfx'
p1113
NsS'win32-aux-dll'
p1114
(lp1115
sS'blackberry-authorid'
p1116
NsS'ws81-publisher-id'
p1117
NsS'win8-store-extra-res'
p1118
(lp1119
sS'wp8-description'
p1120
NsS'iphone-link-opts'
p1121
(lp1122
S'-Ff:/marmalade/7.9/platform_libs/iphone/amazon-ads-ios-sdk/third_party/Ads -framework AmazonAd'
p1123
aS'-weak_framework AdSupport -weak_framework CoreLocation -weak_framework SystemConfiguration'
p1124
aS'-weak_framework CoreTelephony -weak_framework MediaPlayer'
p1125
aS'-weak_framework EventKit -weak_framework EventKitUI'
p1126
asS'ws81-ext-sdk-ref'
p1127
(lp1128
sS'roku-splash-min-time'
p1129
NsS'wp8-tile-fliptemplate-medium-front-image'
p1130
NsS'iphone-disable-launch-images'
p1131
NsS'android-sdk-platform-version'
p1132
NsS'provider'
p1133
NsS'playbook-keystore'
p1134
NsS'tizen-appid'
p1135
NsS'wp8-extra-res'
p1136
(lp1137
sS'symbian-osexecsupport'
p1138
NsS'android-install-location'
p1139
NsS'nds-privatesavedatasize'
p1140
NsS'iphone-disable-testflight'
p1141
NsS'playbook-storepass'
p1142
NsS'android-icon-ldpi'
p1143
NsS'manufacturer'
p1144
NsS'itunes-artwork'
p1145
NsS'iphone-extra-sections'
p1146
NsS'ws81-product-name'
p1147
NsS'ws81-ext-native-dll'
p1148
(lp1149
sS'ws8-extra-pri'
p1150
(lp1151
sS'win32-icon'
p1152
NsS'ws8-logo-image30x30'
p1153
NsS'wp8-ext-managed-dll'
p1154
(lp1155
sS'iphone-splashscreen-landscape'
p1156
NsS'symbian-maxheapsize'
p1157
NsS'android-extra-packages'
p1158
(lp1159
sS'priv-sign-key'
p1160
NsS'networking'
p1161
NsS'android-icon'
p1162
NsS'iphone-icon-settings'
p1163
NsS'nacl-manifest'
p1164
NsS'wp81-phone-product-id'
p1165
NsS'firefoxos-icon-60X60'
p1166
NsS'iphone-distribution-cert'
p1167
NsS'android_extra_strings'
p1168
NsS'nds-bannertitle-en'
p1169
NsS'blackberry-permissions-record-audio'
p1170
NsS'android-so'
p1171
(lp1172
S'f:/marmalade/7.9/extensions/s3eamazonads/lib/android/libs3eAmazonAds.so'
p1173
asS'wp8-higher-mem'
p1174
NsS'wp8-ext-sdk-ref'
p1175
(lp1176
sS'wp8-fast-resume-mode'
p1177
NsS'roku-splash-screen-hd'
p1178
NsS'iphone-bundle-url-schemes'
p1179
NsS'roku-screensaver-private'
p1180
NsS'osx-extra-res'
p1181
(lp1182
sS'ws81-extra-res'
p1183
(lp1184
sS'playbook-icon'
p1185
NsS'uid'
p1186
NsS'pkguid-as-uid'
p1187
NsS'wp81-ext-native-dll'
p1188
(lp1189
sS'tizen-dist1-password'
p1190
NsS'roku-screensaver-title'
p1191
NsS'osx-minimum-osx-version'
p1192
NsS'symbian-cert'
p1193
NsS'iphone-icon'
p1194
NsS'ws81-ext-capabilities'
p1195
(lp1196
sS'ws8-distribution-cer'
p1197
NsS'playbook-access-shared'
p1198
NsS'iphone-icon-ipad-high-res-ios7'
p1199
NsS'iphone-link-libs'
p1200
(lp1201
sS'wp8-exclude-wvga'
p1202
NsS'assets'
p1203
NsS'wp8-tile-fliptemplate-large-back-image'
p1204
NsS'pub-sign-key'
p1205
NsS'nacl-legacy-ext'
p1206
NsS'android-extra-strings'
p1207
(lp1208
sS'tizen-author-CA-path'
p1209
Nssg378
g656
sbssS'platform'
p1210
S'S3E'
p1211
sg73
S'1.0'
p1212
sS'arcade_platform'
p1213
g4
sS'extensions'
p1214
(dp1215
sS'source_groups_tree'
p1216
(dp1217
S'(libpng)'
p1218
(dp1219
S'h'
p1220
(dp1221
S'f:/marmalade/7.9/modules/third_party/libpng/h/png.h'
p1222
(lp1223
I1
a(dp1224
asS'f:/marmalade/7.9/modules/third_party/libpng/h/pngconf.h'
p1225
(lp1226
I1
ag1224
assS'f:/marmalade/7.9/modules/third_party/libpng/libpng.mkf'
p1227
(lp1228
I1
a(dp1229
assS'(amazon-ads-android-sdk)'
p1230
(dp1231
S'f:/marmalade/7.9/platform_libs/android/amazon-ads-android-sdk/amazon-ads-android-sdk.mkf'
p1232
(lp1233
I1
a(dp1234
assS'f:/Users/Teal/Documents/Marmalade/words/words.cpp'
p1235
(lp1236
I1
a(dp1237
asS'(tiniconv)'
p1238
(dp1239
S'f:/marmalade/7.9/modules/third_party/tiniconv/source/tiniconv.h'
p1240
(lp1241
I1
a(dp1242
asS'f:/marmalade/7.9/modules/third_party/tiniconv/source/tiniconv_int.h'
p1243
(lp1244
I1
ag1242
asS'f:/marmalade/7.9/modules/third_party/tiniconv/tiniconv.mkf'
p1245
(lp1246
I1
a(dp1247
assS'(amazon-ads-ios-sdk)'
p1248
(dp1249
S'f:/marmalade/7.9/platform_libs/iphone/amazon-ads-ios-sdk/amazon-ads-ios-sdk.mkf'
p1250
(lp1251
I1
a(dp1252
assS'Extensions'
p1253
(dp1254
S's3eAmazonAds'
p1255
(dp1256
S'interface'
p1257
(dp1258
S'f:/marmalade/7.9/extensions/s3eamazonads/interface/s3eAmazonAds_interface.cpp'
p1259
(lp1260
I1
a(dp1261
asS'f:/marmalade/7.9/extensions/s3eamazonads/interface/s3eAmazonAds.defines.txt'
p1262
(lp1263
I1
ag1261
assS'f:/marmalade/7.9/extensions/s3eamazonads/s3eamazonads.mkf'
p1264
(lp1265
I1
a(dp1266
asS'f:/marmalade/7.9/extensions/s3eamazonads/h/s3eAmazonAds.h'
p1267
(lp1268
I1
ag1261
assS'PVRTexTool'
p1269
(dp1270
S'interface'
p1271
(dp1272
S'f:/marmalade/7.9/extensions/pvrtextool/interface/PVRTexTool.defines.txt'
p1273
(lp1274
I1
a(dp1275
asS'f:/marmalade/7.9/extensions/pvrtextool/interface/PVRTexTool_interface.cpp'
p1276
(lp1277
I1
ag1275
assS'f:/marmalade/7.9/extensions/pvrtextool/pvrtextool.mkf'
p1278
(lp1279
I1
a(dp1280
asS'f:/marmalade/7.9/extensions/pvrtextool/h/PVRTexTool.h'
p1281
(lp1282
I1
ag1275
asssS'(s3e-default)'
p1283
(dp1284
S'f:/marmalade/7.9/s3e/s3e-default.mkf'
p1285
(lp1286
I1
a(dp1287
assS"'Marmalade Studio'"
p1288
(dp1289
S'iw2dscenegraph'
p1290
(dp1291
S'f:/marmalade/7.9/modules/iw2dscenegraph/docs/iw2dscenegraph.defines.txt'
p1292
(lp1293
I1
a(dp1294
asS'f:/marmalade/7.9/modules/iw2dscenegraph/source/Iw2DSceneGraph.cpp'
p1295
(lp1296
I1
ag1294
asS'f:/marmalade/7.9/modules/iw2dscenegraph/iw2dscenegraph.mkf'
p1297
(lp1298
I1
a(dp1299
asS'f:/marmalade/7.9/modules/iw2dscenegraph/h/Iw2DSceneGraph.h'
p1300
(lp1301
I1
ag1294
assS'iwgl'
p1302
(dp1303
S'f:/marmalade/7.9/modules/iwgl/h/IwGL.h'
p1304
(lp1305
I1
a(dp1306
asS'f:/marmalade/7.9/modules/iwgl/iwgl.mkf'
p1307
(lp1308
I1
a(dp1309
asS'f:/marmalade/7.9/modules/iwgl/docs/iwgl.config.txt'
p1310
(lp1311
I1
ag1306
asS'f:/marmalade/7.9/modules/iwgl/h/IwGLExt.h'
p1312
(lp1313
I1
ag1306
assS'iw2d'
p1314
(dp1315
S'f:/marmalade/7.9/modules/iw2d/iw2d.mkf'
p1316
(lp1317
I1
a(dp1318
asS'f:/marmalade/7.9/modules/iw2d/docs/iw2d_public.defines.txt'
p1319
(lp1320
I1
a(dp1321
asS'f:/marmalade/7.9/modules/iw2d/h/Iw2D.h'
p1322
(lp1323
I1
ag1321
asS'f:/marmalade/7.9/modules/iw2d/docs/iw2d.config.txt'
p1324
(lp1325
I1
ag1321
assS'iwgxfont'
p1326
(dp1327
S'f:/marmalade/7.9/modules/iwgxfont/h/IwGxFontState.h'
p1328
(lp1329
I1
a(dp1330
asS'f:/marmalade/7.9/modules/iwgxfont/iwgxfont.mkf'
p1331
(lp1332
I1
a(dp1333
asS'f:/marmalade/7.9/modules/iwgxfont/h/IwGxFontTypes.h'
p1334
(lp1335
I1
ag1330
asS'f:/marmalade/7.9/modules/iwgxfont/docs/iwgxfont.config.txt'
p1336
(lp1337
I1
ag1330
asS'f:/marmalade/7.9/modules/iwgxfont/h/IwGxFontContainer.h'
p1338
(lp1339
I1
ag1330
asS'f:/marmalade/7.9/modules/iwgxfont/docs/iwgxfont_public.defines.txt'
p1340
(lp1341
I1
ag1330
asS'f:/marmalade/7.9/modules/iwgxfont/h/IwGxFont.h'
p1342
(lp1343
I1
ag1330
asS'f:/marmalade/7.9/modules/iwgxfont/h/IwGxFontGlyph.h'
p1344
(lp1345
I1
ag1330
asS'f:/marmalade/7.9/modules/iwgxfont/h/IwGxFontPreparedData.h'
p1346
(lp1347
I1
ag1330
assS'iwgeom'
p1348
(dp1349
S'f:/marmalade/7.9/modules/iwgeom/h/IwGeomVec4.h'
p1350
(lp1351
I1
a(dp1352
asS'f:/marmalade/7.9/modules/iwgeom/h/IwGeomFSphere.h'
p1353
(lp1354
I1
ag1352
asS'f:/marmalade/7.9/modules/iwgeom/h/IwGeomSQuat.h'
p1355
(lp1356
I1
ag1352
asS'f:/marmalade/7.9/modules/iwgeom/h/IwGeomCore.h'
p1357
(lp1358
I1
ag1352
asS'f:/marmalade/7.9/modules/iwgeom/h/IwGeomMat.h'
p1359
(lp1360
I1
ag1352
asS'f:/marmalade/7.9/modules/iwgeom/h/IwGeomIntersect.h'
p1361
(lp1362
I1
ag1352
asS'f:/marmalade/7.9/modules/iwgeom/iwgeom.mkf'
p1363
(lp1364
I1
a(dp1365
asS'f:/marmalade/7.9/modules/iwgeom/h/IwGeomVec.h'
p1366
(lp1367
I1
ag1352
asS'f:/marmalade/7.9/modules/iwgeom/h/IwGeomFVec3.h'
p1368
(lp1369
I1
ag1352
asS'f:/marmalade/7.9/modules/iwgeom/h/IwGeomSVec3.h'
p1370
(lp1371
I1
ag1352
asS'f:/marmalade/7.9/modules/iwgeom/h/IwGeomFPlane.h'
p1372
(lp1373
I1
ag1352
asS'f:/marmalade/7.9/modules/iwgeom/h/IwGeomSphere.h'
p1374
(lp1375
I1
ag1352
asS'f:/marmalade/7.9/modules/iwgeom/h/IwGeomSVec2.h'
p1376
(lp1377
I1
ag1352
asS'f:/marmalade/7.9/modules/iwgeom/h/IwGeomMat2D.h'
p1378
(lp1379
I1
ag1352
asS'f:/marmalade/7.9/modules/iwgeom/h/IwGeomFBBox.h'
p1380
(lp1381
I1
ag1352
asS'f:/marmalade/7.9/modules/iwgeom/h/IwGeomFMat2D.h'
p1382
(lp1383
I1
ag1352
asS'f:/marmalade/7.9/modules/iwgeom/h/IwGeomQuat.h.tpl'
p1384
(lp1385
I1
ag1352
asS'f:/marmalade/7.9/modules/iwgeom/h/IwGeomPlane.h'
p1386
(lp1387
I1
ag1352
asS'f:/marmalade/7.9/modules/iwgeom/docs/iwgeom.config.txt'
p1388
(lp1389
I1
ag1352
asS'f:/marmalade/7.9/modules/iwgeom/h/IwGeomQuat.h'
p1390
(lp1391
I1
ag1352
asS'f:/marmalade/7.9/modules/iwgeom/h/IwGeomFIntersect.h'
p1392
(lp1393
I1
ag1352
asS'f:/marmalade/7.9/modules/iwgeom/h/IwGeomSVec4.h'
p1394
(lp1395
I1
ag1352
asS'f:/marmalade/7.9/modules/iwgeom/h/IwGeomVec.h.tpl'
p1396
(lp1397
I1
ag1352
asS'f:/marmalade/7.9/modules/iwgeom/h/IwGeomLegacy.h'
p1398
(lp1399
I1
ag1352
asS'f:/marmalade/7.9/modules/iwgeom/h/IwGeomMat2D.h.tpl'
p1400
(lp1401
I1
ag1352
asS'f:/marmalade/7.9/modules/iwgeom/h/IwGeomFQuat.h'
p1402
(lp1403
I1
ag1352
asS'f:/marmalade/7.9/modules/iwgeom/h/IwGeomFMat.h'
p1404
(lp1405
I1
ag1352
asS'f:/marmalade/7.9/modules/iwgeom/h/IwGeom.h'
p1406
(lp1407
I1
ag1352
asS'f:/marmalade/7.9/modules/iwgeom/h/IwGeomBBox.h'
p1408
(lp1409
I1
ag1352
asS'f:/marmalade/7.9/modules/iwgeom/h/IwGeomFVec4.h'
p1410
(lp1411
I1
ag1352
asS'f:/marmalade/7.9/modules/iwgeom/h/IwGeomVec3.h'
p1412
(lp1413
I1
ag1352
asS'f:/marmalade/7.9/modules/iwgeom/h/IwGeomMenu.h'
p1414
(lp1415
I1
ag1352
asS'f:/marmalade/7.9/modules/iwgeom/h/IwGeomVec2.h'
p1416
(lp1417
I1
ag1352
asS'f:/marmalade/7.9/modules/iwgeom/h/IwGeomSqrt.h'
p1418
(lp1419
I1
ag1352
asS'f:/marmalade/7.9/modules/iwgeom/h/IwGeomFVec2.h'
p1420
(lp1421
I1
ag1352
asS'f:/marmalade/7.9/modules/iwgeom/h/IwGeomMat.h.tpl'
p1422
(lp1423
I1
ag1352
assS'iwresmanager'
p1424
(dp1425
S'f:/marmalade/7.9/modules/iwresmanager/h/IwResManagerClass.h'
p1426
(lp1427
I1
a(dp1428
asS'f:/marmalade/7.9/modules/iwresmanager/h/IwResHandlerITX.h'
p1429
(lp1430
I1
ag1428
asS'f:/marmalade/7.9/modules/iwresmanager/docs/iwresmanager.config.txt'
p1431
(lp1432
I1
ag1428
asS'f:/marmalade/7.9/modules/iwresmanager/h/IwResHandlerGROUP.h'
p1433
(lp1434
I1
ag1428
asS'f:/marmalade/7.9/modules/iwresmanager/h/IwResHandler.h'
p1435
(lp1436
I1
ag1428
asS'f:/marmalade/7.9/modules/iwresmanager/h/IwResGroup.h'
p1437
(lp1438
I1
ag1428
asS'f:/marmalade/7.9/modules/iwresmanager/iwresmanager.mkf'
p1439
(lp1440
I1
a(dp1441
asS'f:/marmalade/7.9/modules/iwresmanager/h/IwResHandlerImage.h'
p1442
(lp1443
I1
ag1428
asS'f:/marmalade/7.9/modules/iwresmanager/h/IwResSerialise.h'
p1444
(lp1445
I1
ag1428
asS'f:/marmalade/7.9/modules/iwresmanager/h/IwResManager.h'
p1446
(lp1447
I1
ag1428
assS'iwgx'
p1448
(dp1449
S'f:/marmalade/7.9/modules/iwgx/h/IwGxMetrics.h'
p1450
(lp1451
I1
a(dp1452
asS'f:/marmalade/7.9/modules/iwgx/h/IwGxSurface.h'
p1453
(lp1454
I1
ag1452
asS'f:/marmalade/7.9/modules/iwgx/docs/iwgx_public.defines.txt'
p1455
(lp1456
I1
ag1452
asS'f:/marmalade/7.9/modules/iwgx/iwgx.mkf'
p1457
(lp1458
I1
a(dp1459
asS'f:/marmalade/7.9/modules/iwgx/h/IwMaterial.h'
p1460
(lp1461
I1
ag1452
asS'f:/marmalade/7.9/modules/iwgx/h/IwGxFuncTable.h'
p1462
(lp1463
I1
ag1452
asS'f:/marmalade/7.9/modules/iwgx/h/IwDebugPrim.h'
p1464
(lp1465
I1
ag1452
asS'f:/marmalade/7.9/modules/iwgx/h/IwGxState.h'
p1466
(lp1467
I1
ag1452
asS'f:/marmalade/7.9/modules/iwgx/h/IwClip.h'
p1468
(lp1469
I1
ag1452
asS'f:/marmalade/7.9/modules/iwgx/h/IwGxPrint.h'
p1470
(lp1471
I1
ag1452
asS'f:/marmalade/7.9/modules/iwgx/h/IwTPage.h'
p1472
(lp1473
I1
ag1452
asS'f:/marmalade/7.9/modules/iwgx/h/IwClip.inl'
p1474
(lp1475
I1
ag1452
asS'f:/marmalade/7.9/modules/iwgx/h/IwGxStream.h'
p1476
(lp1477
I1
ag1452
asS'f:/marmalade/7.9/modules/iwgx/h/IwTexture.h'
p1478
(lp1479
I1
ag1452
asS'f:/marmalade/7.9/modules/iwgx/h/IwColour.h'
p1480
(lp1481
I1
ag1452
asS'f:/marmalade/7.9/modules/iwgx/h/IwGxTypes.h'
p1482
(lp1483
I1
ag1452
asS'f:/marmalade/7.9/modules/iwgx/h/IwGxTransformSW.h'
p1484
(lp1485
I1
ag1452
asS'f:/marmalade/7.9/modules/iwgx/h/IwGxDebug.h'
p1486
(lp1487
I1
ag1452
asS'f:/marmalade/7.9/modules/iwgx/h/IwMatAnim.h'
p1488
(lp1489
I1
ag1452
asS'f:/marmalade/7.9/modules/iwgx/h/IwFColour.h'
p1490
(lp1491
I1
ag1452
asS'f:/marmalade/7.9/modules/iwgx/h/IwResHandlerMTL.h'
p1492
(lp1493
I1
ag1452
asS'f:/marmalade/7.9/modules/iwgx/docs/iwgx.config.txt'
p1494
(lp1495
I1
ag1452
asS'f:/marmalade/7.9/modules/iwgx/h/IwGx.h'
p1496
(lp1497
I1
ag1452
asS'f:/marmalade/7.9/modules/iwgx/h/IwGxShaderTechnique.h'
p1498
(lp1499
I1
ag1452
asS'f:/marmalade/7.9/modules/iwgx/h/IwGxError.h'
p1500
(lp1501
I1
ag1452
assS'iw2dscenegraphcore'
p1502
(dp1503
S'f:/marmalade/7.9/modules/iw2dscenegraphcore/source/Iw2DSceneGraphCore.cpp'
p1504
(lp1505
I1
a(dp1506
asS'f:/marmalade/7.9/modules/iw2dscenegraphcore/iw2dscenegraphcore.mkf'
p1507
(lp1508
I1
a(dp1509
asS'f:/marmalade/7.9/modules/iw2dscenegraphcore/h/Iw2DSceneGraphCore.h'
p1510
(lp1511
I1
ag1506
assS'iwutil'
p1512
(dp1513
S'f:/marmalade/7.9/modules/iwutil/h/IwSingleton.h'
p1514
(lp1515
I1
a(dp1516
asS'f:/marmalade/7.9/modules/iwutil/h/IwUtil.h'
p1517
(lp1518
I1
ag1516
asS'f:/marmalade/7.9/modules/iwutil/h/IwSerialise.h'
p1519
(lp1520
I1
ag1516
asS'f:/marmalade/7.9/modules/iwutil/iwutil.mkf'
p1521
(lp1522
I1
a(dp1523
asS'f:/marmalade/7.9/modules/iwutil/h/IwDebug.h'
p1524
(lp1525
I1
ag1516
asS'f:/marmalade/7.9/modules/iwutil/h/IwBuffer.h'
p1526
(lp1527
I1
ag1516
asS'f:/marmalade/7.9/modules/iwutil/h/IwRuntime.h'
p1528
(lp1529
I1
ag1516
asS'f:/marmalade/7.9/modules/iwutil/h/IwChar.h'
p1530
(lp1531
I1
ag1516
asS'f:/marmalade/7.9/modules/iwutil/h/IwTypes.h'
p1532
(lp1533
I1
ag1516
asS'f:/marmalade/7.9/modules/iwutil/h/IwDivTable.h'
p1534
(lp1535
I1
ag1516
asS'f:/marmalade/7.9/modules/iwutil/h/IwManagedList.h'
p1536
(lp1537
I1
ag1516
asS'f:/marmalade/7.9/modules/iwutil/h/IwMenu.h'
p1538
(lp1539
I1
ag1516
asS'f:/marmalade/7.9/modules/iwutil/h/IwCopyingPtr.h'
p1540
(lp1541
I1
ag1516
asS'f:/marmalade/7.9/modules/iwutil/h/IwFile.h'
p1542
(lp1543
I1
ag1516
asS'f:/marmalade/7.9/modules/iwutil/h/IwProfileMenu.h'
p1544
(lp1545
I1
ag1516
asS'f:/marmalade/7.9/modules/iwutil/h/IwMath.h'
p1546
(lp1547
I1
ag1516
asS'f:/marmalade/7.9/modules/iwutil/h/IwOptimiseThumb.h'
p1548
(lp1549
I1
ag1516
asS'f:/marmalade/7.9/modules/iwutil/h/IwArray.h'
p1550
(lp1551
I1
ag1516
asS'f:/marmalade/7.9/modules/iwutil/h/IwOptimiseSpeed.h'
p1552
(lp1553
I1
ag1516
asS'f:/marmalade/7.9/modules/iwutil/h/IwEvent.h'
p1554
(lp1555
I1
ag1516
asS'f:/marmalade/7.9/modules/iwutil/h/IwTextParseable.h'
p1556
(lp1557
I1
ag1516
asS'f:/marmalade/7.9/modules/iwutil/h/IwMemory.h'
p1558
(lp1559
I1
ag1516
asS'f:/marmalade/7.9/modules/iwutil/h/IwRandom.h'
p1560
(lp1561
I1
ag1516
asS'f:/marmalade/7.9/modules/iwutil/h/IwCore.h'
p1562
(lp1563
I1
ag1516
asS'f:/marmalade/7.9/modules/iwutil/h/IwHashString.h'
p1564
(lp1565
I1
ag1516
asS'f:/marmalade/7.9/modules/iwutil/h/IwMemManagerDL.h'
p1566
(lp1567
I1
ag1516
asS'f:/marmalade/7.9/modules/iwutil/h/IwResource.h'
p1568
(lp1569
I1
ag1516
asS'f:/marmalade/7.9/modules/iwutil/h/IwKeymap.h'
p1570
(lp1571
I1
ag1516
asS'f:/marmalade/7.9/modules/iwutil/h/IwImageHelper.h'
p1572
(lp1573
I1
ag1516
asS'f:/marmalade/7.9/modules/iwutil/h/IwPath.h'
p1574
(lp1575
I1
ag1516
asS'f:/marmalade/7.9/modules/iwutil/h/IwUtilInitTerm.h'
p1576
(lp1577
I1
ag1516
asS'f:/marmalade/7.9/modules/iwutil/h/IwVariableBitField.h'
p1578
(lp1579
I1
ag1516
asS'f:/marmalade/7.9/modules/iwutil/h/IwManaged.h'
p1580
(lp1581
I1
ag1516
asS'f:/marmalade/7.9/modules/iwutil/h/IwUTF8.h'
p1582
(lp1583
I1
ag1516
asS'f:/marmalade/7.9/modules/iwutil/h/IwAutoFile.h'
p1584
(lp1585
I1
ag1516
asS'f:/marmalade/7.9/modules/iwutil/h/IwTextParser.h'
p1586
(lp1587
I1
ag1516
asS'f:/marmalade/7.9/modules/iwutil/h/IwClassFactory.h'
p1588
(lp1589
I1
ag1516
asS'f:/marmalade/7.9/modules/iwutil/h/IwImage.h'
p1590
(lp1591
I1
ag1516
asS'f:/marmalade/7.9/modules/iwutil/docs/iwutil.config.txt'
p1592
(lp1593
I1
ag1516
asS'f:/marmalade/7.9/modules/iwutil/h/IwUncopyable.h'
p1594
(lp1595
I1
ag1516
asS'f:/marmalade/7.9/modules/iwutil/h/IwAllocator.h'
p1596
(lp1597
I1
ag1516
asS'f:/marmalade/7.9/modules/iwutil/h/IwFibre.h'
p1598
(lp1599
I1
ag1516
asS'f:/marmalade/7.9/modules/iwutil/h/IwMemBucketHelpers.h'
p1600
(lp1601
I1
ag1516
asS'f:/marmalade/7.9/modules/iwutil/h/IwOptimiseARM.h'
p1602
(lp1603
I1
ag1516
asS'f:/marmalade/7.9/modules/iwutil/h/IwString.h'
p1604
(lp1605
I1
ag1516
asS'f:/marmalade/7.9/modules/iwutil/h/IwList.h'
p1606
(lp1607
I1
ag1516
asS'f:/marmalade/7.9/modules/iwutil/h/IwTextParserITX.h'
p1608
(lp1609
I1
ag1516
asS'f:/marmalade/7.9/modules/iwutil/h/IwDivide.h'
p1610
(lp1611
I1
ag1516
asS'f:/marmalade/7.9/modules/iwutil/h/IwMemBucket.h'
p1612
(lp1613
I1
ag1516
asS'f:/marmalade/7.9/modules/iwutil/h/IwOptimiseSize.h'
p1614
(lp1615
I1
ag1516
asssS'(zlib)'
p1616
(dp1617
g1220
(dp1618
S'f:/marmalade/7.9/modules/third_party/zlib/h/zlib.h'
p1619
(lp1620
I1
a(dp1621
asS'f:/marmalade/7.9/modules/third_party/zlib/h/zconf.h'
p1622
(lp1623
I1
ag1621
assS'f:/marmalade/7.9/modules/third_party/zlib/zlib.mkf'
p1624
(lp1625
I1
a(dp1626
assS'(iwtween)'
p1627
(dp1628
S'f:/marmalade/7.9/modules/iwtween/iwtween.mkf'
p1629
(lp1630
I1
a(dp1631
asS'f:/marmalade/7.9/modules/iwtween/source/IwTween.cpp'
p1632
(lp1633
I1
a(dp1634
asS'f:/marmalade/7.9/modules/iwtween/h/IwTween.h'
p1635
(lp1636
I1
ag1634
assS'(libjpeg)'
p1637
(dp1638
g1220
(dp1639
S'f:/marmalade/7.9/modules/third_party/libjpeg/h/jpeglib.h'
p1640
(lp1641
I1
a(dp1642
asS'f:/marmalade/7.9/modules/third_party/libjpeg/h/transupp.h'
p1643
(lp1644
I1
ag1642
asS'f:/marmalade/7.9/modules/third_party/libjpeg/h/jchuff.h'
p1645
(lp1646
I1
ag1642
asS'f:/marmalade/7.9/modules/third_party/libjpeg/h/jerror.h'
p1647
(lp1648
I1
ag1642
asS'f:/marmalade/7.9/modules/third_party/libjpeg/h/jconfig.h'
p1649
(lp1650
I1
ag1642
asS'f:/marmalade/7.9/modules/third_party/libjpeg/h/jpegint.h'
p1651
(lp1652
I1
ag1642
asS'f:/marmalade/7.9/modules/third_party/libjpeg/h/jinclude.h'
p1653
(lp1654
I1
ag1642
asS'f:/marmalade/7.9/modules/third_party/libjpeg/h/jdhuff.h'
p1655
(lp1656
I1
ag1642
asS'f:/marmalade/7.9/modules/third_party/libjpeg/h/cderror.h'
p1657
(lp1658
I1
ag1642
asS'f:/marmalade/7.9/modules/third_party/libjpeg/h/jversion.h'
p1659
(lp1660
I1
ag1642
asS'f:/marmalade/7.9/modules/third_party/libjpeg/h/cdjpeg.h'
p1661
(lp1662
I1
ag1642
asS'f:/marmalade/7.9/modules/third_party/libjpeg/h/jdct.h'
p1663
(lp1664
I1
ag1642
asS'f:/marmalade/7.9/modules/third_party/libjpeg/h/jmemsys.h'
p1665
(lp1666
I1
ag1642
asS'f:/marmalade/7.9/modules/third_party/libjpeg/h/jmorecfg.h'
p1667
(lp1668
I1
ag1642
assS'f:/marmalade/7.9/modules/third_party/libjpeg/libjpeg.mkf'
p1669
(lp1670
I1
a(dp1671
asssS'files'
p1672
(dp1673
S'IwGxFontPreparedData.h'
p1674
g352
(cmkb_main
File
p1675
g354
Ntp1676
Rp1677
(dp1678
S'flags'
p1679
g1330
sS'group'
p1680
(lp1681
S"'Marmalade Studio'"
p1682
ag1326
asg378
g1346
sbsS'iterator'
p1683
g352
(g1675
g354
Ntp1684
Rp1685
(dp1686
g1679
(dp1687
sg1680
(lp1688
S"'Marmalade System (S3E)'"
p1689
aS'stdc headers'
p1690
aS'c++'
p1691
asg378
S'f:/marmalade/7.9/s3e/h/std/c++/iterator'
p1692
sbsS'IwGL.h'
p1693
g352
(g1675
g354
Ntp1694
Rp1695
(dp1696
g1679
g1306
sg1680
(lp1697
S"'Marmalade Studio'"
p1698
ag1302
asg378
g1304
sbsS's3e.h'
p1699
g352
(g1675
g354
Ntp1700
Rp1701
(dp1702
g1679
g1687
sg1680
(lp1703
g1689
asg378
S'f:/marmalade/7.9/s3e/h/s3e.h'
p1704
sbsS'errno.h'
p1705
g352
(g1675
g354
Ntp1706
Rp1707
(dp1708
g1679
g1687
sg1680
(lp1709
g1689
aS'stdc headers'
p1710
asg378
S'f:/marmalade/7.9/s3e/h/std/errno.h'
p1711
sbsS'IwSingleton.h'
p1712
g352
(g1675
g354
Ntp1713
Rp1714
(dp1715
g1679
g1516
sg1680
(lp1716
S"'Marmalade Studio'"
p1717
ag1512
asg378
g1514
sbsS'dlfcn.h'
p1718
g352
(g1675
g354
Ntp1719
Rp1720
(dp1721
g1679
g1687
sg1680
g1709
sg378
S'f:/marmalade/7.9/s3e/h/std/dlfcn.h'
p1722
sbsS'stdio_streambuf'
p1723
g352
(g1675
g354
Ntp1724
Rp1725
(dp1726
g1679
g1687
sg1680
g1688
sg378
S'f:/marmalade/7.9/s3e/h/std/c++/stdio_streambuf'
p1727
sbsS'sched.h'
p1728
g352
(g1675
g354
Ntp1729
Rp1730
(dp1731
g1679
g1687
sg1680
g1709
sg378
S'f:/marmalade/7.9/s3e/h/std/sched.h'
p1732
sbsS'IwGeomFMat2D.h'
p1733
g352
(g1675
g354
Ntp1734
Rp1735
(dp1736
g1679
g1352
sg1680
(lp1737
S"'Marmalade Studio'"
p1738
ag1348
asg378
g1382
sbsS'cassert'
p1739
g352
(g1675
g354
Ntp1740
Rp1741
(dp1742
g1679
g1687
sg1680
g1688
sg378
S'f:/marmalade/7.9/s3e/h/std/c++/cassert'
p1743
sbsS'grp.h'
p1744
g352
(g1675
g354
Ntp1745
Rp1746
(dp1747
g1679
g1687
sg1680
g1709
sg378
S'f:/marmalade/7.9/s3e/h/std/grp.h'
p1748
sbsS'list'
p1749
g352
(g1675
g354
Ntp1750
Rp1751
(dp1752
g1679
g1687
sg1680
g1688
sg378
S'f:/marmalade/7.9/s3e/h/std/c++/list'
p1753
sbsS'IwGeomMat.h.tpl'
p1754
g352
(g1675
g354
Ntp1755
Rp1756
(dp1757
g1679
g1352
sg1680
g1737
sg378
g1422
sbsS'istream'
p1758
g352
(g1675
g354
Ntp1759
Rp1760
(dp1761
g1679
g1687
sg1680
g1688
sg378
S'f:/marmalade/7.9/s3e/h/std/c++/istream'
p1762
sbsS'jpeglib.h'
p1763
g352
(g1675
g354
Ntp1764
Rp1765
(dp1766
g1679
g1642
sg1680
(lp1767
g1637
ag1220
asg378
g1640
sbsS'iw2d_public.defines.txt'
p1768
g352
(g1675
g354
Ntp1769
Rp1770
(dp1771
g1679
g1321
sg1680
(lp1772
S"'Marmalade Studio'"
p1773
ag1314
asg378
g1319
sbsS'iostream.h'
p1774
g352
(g1675
g354
Ntp1775
Rp1776
(dp1777
g1679
g1687
sg1680
g1688
sg378
S'f:/marmalade/7.9/s3e/h/std/c++/iostream.h'
p1778
sbsS'string'
p1779
g352
(g1675
g354
Ntp1780
Rp1781
(dp1782
g1679
g1687
sg1680
g1688
sg378
S'f:/marmalade/7.9/s3e/h/std/c++/string'
p1783
sbsS'IwMemory.h'
p1784
g352
(g1675
g354
Ntp1785
Rp1786
(dp1787
g1679
g1516
sg1680
g1716
sg378
g1558
sbsS'IwGeomPlane.h'
p1788
g352
(g1675
g354
Ntp1789
Rp1790
(dp1791
g1679
g1352
sg1680
g1737
sg378
g1386
sbsS'iw2d.config.txt'
p1792
g352
(g1675
g354
Ntp1793
Rp1794
(dp1795
g1679
g1321
sg1680
g1772
sg378
g1324
sbsS'iomanip'
p1796
g352
(g1675
g354
Ntp1797
Rp1798
(dp1799
g1679
g1687
sg1680
g1688
sg378
S'f:/marmalade/7.9/s3e/h/std/c++/iomanip'
p1800
sbsS'iwgeom.mkf'
p1801
g352
(g1675
g354
Ntp1802
Rp1803
(dp1804
g1679
g1365
sg1680
g1737
sg378
g1363
sbsS'IwGxError.h'
p1805
g352
(g1675
g354
Ntp1806
Rp1807
(dp1808
g1679
g1452
sg1680
(lp1809
S"'Marmalade Studio'"
p1810
ag1448
asg378
g1500
sbsS'IwGeom.h'
p1811
g352
(g1675
g354
Ntp1812
Rp1813
(dp1814
g1679
g1352
sg1680
g1737
sg378
g1406
sbsS'IwGeomVec4.h'
p1815
g352
(g1675
g354
Ntp1816
Rp1817
(dp1818
g1679
g1352
sg1680
g1737
sg378
g1350
sbsS'dir.h'
p1819
g352
(g1675
g354
Ntp1820
Rp1821
(dp1822
g1679
g1687
sg1680
(lp1823
g1689
aS'stdc headers'
p1824
aS'sys'
p1825
asg378
S'f:/marmalade/7.9/s3e/h/std/sys/dir.h'
p1826
sbsS'locale.h'
p1827
g352
(g1675
g354
Ntp1828
Rp1829
(dp1830
g1679
g1687
sg1680
g1709
sg378
S'f:/marmalade/7.9/s3e/h/std/locale.h'
p1831
sbsS'vector'
p1832
g352
(g1675
g354
Ntp1833
Rp1834
(dp1835
g1679
g1687
sg1680
g1688
sg378
S'f:/marmalade/7.9/s3e/h/std/c++/vector'
p1836
sbsS'IwManaged.h'
p1837
g352
(g1675
g354
Ntp1838
Rp1839
(dp1840
g1679
g1516
sg1680
g1716
sg378
g1580
sbsS's3eCompass.h'
p1841
g352
(g1675
g354
Ntp1842
Rp1843
(dp1844
g1679
g1687
sg1680
g1703
sg378
S'f:/marmalade/7.9/s3e/h/s3eCompass.h'
p1845
sbsS'cderror.h'
p1846
g352
(g1675
g354
Ntp1847
Rp1848
(dp1849
g1679
g1642
sg1680
g1767
sg378
g1657
sbsS'climits'
p1850
g352
(g1675
g354
Ntp1851
Rp1852
(dp1853
g1679
g1687
sg1680
g1688
sg378
S'f:/marmalade/7.9/s3e/h/std/c++/climits'
p1854
sbsS's3eVibra.h'
p1855
g352
(g1675
g354
Ntp1856
Rp1857
(dp1858
g1679
g1687
sg1680
g1703
sg378
S'f:/marmalade/7.9/s3e/h/s3eVibra.h'
p1859
sbsS'jversion.h'
p1860
g352
(g1675
g354
Ntp1861
Rp1862
(dp1863
g1679
g1642
sg1680
g1767
sg378
g1659
sbsS'fnmatch.h'
p1864
g352
(g1675
g354
Ntp1865
Rp1866
(dp1867
g1679
g1687
sg1680
g1709
sg378
S'f:/marmalade/7.9/s3e/h/std/fnmatch.h'
p1868
sbsS'IwGxState.h'
p1869
g352
(g1675
g354
Ntp1870
Rp1871
(dp1872
g1679
g1452
sg1680
g1809
sg378
g1466
sbsS's3eAudio.h'
p1873
g352
(g1675
g354
Ntp1874
Rp1875
(dp1876
g1679
g1687
sg1680
g1703
sg378
S'f:/marmalade/7.9/s3e/h/s3eAudio.h'
p1877
sbsS's3eSurface.h'
p1878
g352
(g1675
g354
Ntp1879
Rp1880
(dp1881
g1679
g1687
sg1680
g1703
sg378
S'f:/marmalade/7.9/s3e/h/s3eSurface.h'
p1882
sbsS'new'
p1883
g352
(g1675
g354
Ntp1884
Rp1885
(dp1886
g1679
g1687
sg1680
g1688
sg378
S'f:/marmalade/7.9/s3e/h/std/c++/new'
p1887
sbsS's3eWindow.h'
p1888
g352
(g1675
g354
Ntp1889
Rp1890
(dp1891
g1679
g1687
sg1680
(lp1892
g1689
aS'Extensions'
p1893
asg378
S'f:/marmalade/7.9/s3e/h/ext/s3eWindow.h'
p1894
sbsS'IwBuffer.h'
p1895
g352
(g1675
g354
Ntp1896
Rp1897
(dp1898
g1679
g1516
sg1680
g1716
sg378
g1526
sbsS'IwGeomQuat.h.tpl'
p1899
g352
(g1675
g354
Ntp1900
Rp1901
(dp1902
g1679
g1352
sg1680
g1737
sg378
g1384
sbsS's3eOSExec.h'
p1903
g352
(g1675
g354
Ntp1904
Rp1905
(dp1906
g1679
g1687
sg1680
g1892
sg378
S'f:/marmalade/7.9/s3e/h/ext/s3eOSExec.h'
p1907
sbsS'IwGxTransformSW.h'
p1908
g352
(g1675
g354
Ntp1909
Rp1910
(dp1911
g1679
g1452
sg1680
g1809
sg378
g1484
sbsS'IwGxMetrics.h'
p1912
g352
(g1675
g354
Ntp1913
Rp1914
(dp1915
g1679
g1452
sg1680
g1809
sg378
g1450
sbsS'iwgxfont.config.txt'
p1916
g352
(g1675
g354
Ntp1917
Rp1918
(dp1919
g1679
g1330
sg1680
g1681
sg378
g1336
sbsS'gl2platform.h'
p1920
g352
(g1675
g354
Ntp1921
Rp1922
(dp1923
g1679
g1687
sg1680
(lp1924
g1689
aS'GL'
p1925
aS'GLES 2.0'
p1926
asg378
S'f:/marmalade/7.9/s3e/h/GLES2/gl2platform.h'
p1927
sbsS'iw2dscenegraph.defines.txt'
p1928
g352
(g1675
g354
Ntp1929
Rp1930
(dp1931
g1679
g1294
sg1680
(lp1932
S"'Marmalade Studio'"
p1933
ag1290
asg378
g1292
sbsS'queue'
p1934
g352
(g1675
g354
Ntp1935
Rp1936
(dp1937
g1679
g1687
sg1680
g1688
sg378
S'f:/marmalade/7.9/s3e/h/std/c++/queue'
p1938
sbsS'time_1.h'
p1939
g352
(g1675
g354
Ntp1940
Rp1941
(dp1942
g1679
g1687
sg1680
g1823
sg378
S'f:/marmalade/7.9/s3e/h/std/sys/time.h'
p1943
sbsS'Iw2D.h'
p1944
g352
(g1675
g354
Ntp1945
Rp1946
(dp1947
g1679
g1321
sg1680
g1772
sg378
g1322
sbsS'IwGeomVec2.h'
p1948
g352
(g1675
g354
Ntp1949
Rp1950
(dp1951
g1679
g1352
sg1680
g1737
sg378
g1416
sbsS's3eDevice.h'
p1952
g352
(g1675
g354
Ntp1953
Rp1954
(dp1955
g1679
g1687
sg1680
g1703
sg378
S'f:/marmalade/7.9/s3e/h/s3eDevice.h'
p1956
sbsS'malloc.h'
p1957
g352
(g1675
g354
Ntp1958
Rp1959
(dp1960
g1679
g1687
sg1680
g1709
sg378
S'f:/marmalade/7.9/s3e/h/std/malloc.h'
p1961
sbsS'stdarg.h'
p1962
g352
(g1675
g354
Ntp1963
Rp1964
(dp1965
g1679
g1687
sg1680
g1709
sg378
S'f:/marmalade/7.9/s3e/h/std/stdarg.h'
p1966
sbsS'IwGeomCore.h'
p1967
g352
(g1675
g354
Ntp1968
Rp1969
(dp1970
g1679
g1352
sg1680
g1737
sg378
g1357
sbsS'Iw2DSceneGraph.h'
p1971
g352
(g1675
g354
Ntp1972
Rp1973
(dp1974
g1679
g1294
sg1680
g1932
sg378
g1300
sbsS'endian.h'
p1975
g352
(g1675
g354
Ntp1976
Rp1977
(dp1978
g1679
g1687
sg1680
g1709
sg378
S'f:/marmalade/7.9/s3e/h/std/endian.h'
p1979
sbsS'gl3ext.h'
p1980
g352
(g1675
g354
Ntp1981
Rp1982
(dp1983
g1679
g1687
sg1680
(lp1984
g1689
aS'GL'
p1985
aS'GLES 3.0'
p1986
asg378
S'f:/marmalade/7.9/s3e/h/GLES3/gl3ext.h'
p1987
sbsS'glob.h'
p1988
g352
(g1675
g354
Ntp1989
Rp1990
(dp1991
g1679
g1687
sg1680
g1709
sg378
S'f:/marmalade/7.9/s3e/h/std/glob.h'
p1992
sbsS'fstream'
p1993
g352
(g1675
g354
Ntp1994
Rp1995
(dp1996
g1679
g1687
sg1680
g1688
sg378
S'f:/marmalade/7.9/s3e/h/std/c++/fstream'
p1997
sbsS's3eCamera.h'
p1998
g352
(g1675
g354
Ntp1999
Rp2000
(dp2001
g1679
g1687
sg1680
g1703
sg378
S'f:/marmalade/7.9/s3e/h/s3eCamera.h'
p2002
sbsS'jconfig.h'
p2003
g352
(g1675
g354
Ntp2004
Rp2005
(dp2006
g1679
g1642
sg1680
g1767
sg378
g1649
sbsS'memory'
p2007
g352
(g1675
g354
Ntp2008
Rp2009
(dp2010
g1679
g1687
sg1680
g1688
sg378
S'f:/marmalade/7.9/s3e/h/std/c++/memory'
p2011
sbsS'egl.h'
p2012
g352
(g1675
g354
Ntp2013
Rp2014
(dp2015
g1679
g1687
sg1680
(lp2016
g1689
aS'GL'
p2017
aS'EGL'
p2018
asg378
S'f:/marmalade/7.9/s3e/h/EGL/egl.h'
p2019
sbsS'IwClip.inl'
p2020
g352
(g1675
g354
Ntp2021
Rp2022
(dp2023
g1679
g1452
sg1680
g1809
sg378
g1474
sbsS'IwMemManagerDL.h'
p2024
g352
(g1675
g354
Ntp2025
Rp2026
(dp2027
g1679
g1516
sg1680
g1716
sg378
g1566
sbsS'deque'
p2028
g352
(g1675
g354
Ntp2029
Rp2030
(dp2031
g1679
g1687
sg1680
g1688
sg378
S'f:/marmalade/7.9/s3e/h/std/c++/deque'
p2032
sbsS'IwString.h'
p2033
g352
(g1675
g354
Ntp2034
Rp2035
(dp2036
g1679
g1516
sg1680
g1716
sg378
g1604
sbsS'cwchar'
p2037
g352
(g1675
g354
Ntp2038
Rp2039
(dp2040
g1679
g1687
sg1680
g1688
sg378
S'f:/marmalade/7.9/s3e/h/std/c++/cwchar'
p2041
sbsS'iwutil.mkf'
p2042
g352
(g1675
g354
Ntp2043
Rp2044
(dp2045
g1679
g1523
sg1680
g1716
sg378
g1521
sbsS'csignal'
p2046
g352
(g1675
g354
Ntp2047
Rp2048
(dp2049
g1679
g1687
sg1680
g1688
sg378
S'f:/marmalade/7.9/s3e/h/std/c++/csignal'
p2050
sbsS'float.h'
p2051
g352
(g1675
g354
Ntp2052
Rp2053
(dp2054
g1679
g1687
sg1680
g1709
sg378
S'f:/marmalade/7.9/s3e/h/std/float.h'
p2055
sbsS'pthread_alloc'
p2056
g352
(g1675
g354
Ntp2057
Rp2058
(dp2059
g1679
g1687
sg1680
g1688
sg378
S'f:/marmalade/7.9/s3e/h/std/c++/pthread_alloc'
p2060
sbsS'getopt.h'
p2061
g352
(g1675
g354
Ntp2062
Rp2063
(dp2064
g1679
g1687
sg1680
g1709
sg378
S'f:/marmalade/7.9/s3e/h/std/getopt.h'
p2065
sbsS'IwOptimiseARM.h'
p2066
g352
(g1675
g354
Ntp2067
Rp2068
(dp2069
g1679
g1516
sg1680
g1716
sg378
g1602
sbsS'times.h'
p2070
g352
(g1675
g354
Ntp2071
Rp2072
(dp2073
g1679
g1687
sg1680
g1823
sg378
S'f:/marmalade/7.9/s3e/h/std/sys/times.h'
p2074
sbsS'IwGeomFSphere.h'
p2075
g352
(g1675
g354
Ntp2076
Rp2077
(dp2078
g1679
g1352
sg1680
g1737
sg378
g1353
sbsS'amazon-ads-android-sdk.mkf'
p2079
g352
(g1675
g354
Ntp2080
Rp2081
(dp2082
g1679
g1234
sg1680
(lp2083
g1230
asg378
g1232
sbsS'IwTypes.h'
p2084
g352
(g1675
g354
Ntp2085
Rp2086
(dp2087
g1679
g1516
sg1680
g1716
sg378
g1532
sbsS'unistd.h'
p2088
g352
(g1675
g354
Ntp2089
Rp2090
(dp2091
g1679
g1687
sg1680
g1709
sg378
S'f:/marmalade/7.9/s3e/h/std/unistd.h'
p2092
sbsS's3eCompression.h'
p2093
g352
(g1675
g354
Ntp2094
Rp2095
(dp2096
g1679
g1687
sg1680
g1703
sg378
S'f:/marmalade/7.9/s3e/h/s3eCompression.h'
p2097
sbsS'langinfo.h'
p2098
g352
(g1675
g354
Ntp2099
Rp2100
(dp2101
g1679
g1687
sg1680
g1709
sg378
S'f:/marmalade/7.9/s3e/h/std/langinfo.h'
p2102
sbsS's3edebugHeap.h'
p2103
g352
(g1675
g354
Ntp2104
Rp2105
(dp2106
g1679
g1687
sg1680
g1892
sg378
S'f:/marmalade/7.9/s3e/h/ext/s3edebugHeap.h'
p2107
sbsS'AirplayVersion.h'
p2108
g352
(g1675
g354
Ntp2109
Rp2110
(dp2111
g1679
g1687
sg1680
g1703
sg378
S'f:/marmalade/7.9/s3e/h/AirplayVersion.h'
p2112
sbsS'gl2extimg.h'
p2113
g352
(g1675
g354
Ntp2114
Rp2115
(dp2116
g1679
g1687
sg1680
g1924
sg378
S'f:/marmalade/7.9/s3e/h/GLES2/gl2extimg.h'
p2117
sbsS'app.config.txt'
p2118
g352
(g1675
g354
Ntp2119
Rp2120
(dp2121
g1679
(dp2122
sg1680
g4
sg378
S'f:/Users/Teal/Documents/Marmalade/words/data/app.config.txt'
p2123
sbsS'IwGeomSqrt.h'
p2124
g352
(g1675
g354
Ntp2125
Rp2126
(dp2127
g1679
g1352
sg1680
g1737
sg378
g1418
sbsS'tiniconv_int.h'
p2128
g352
(g1675
g354
Ntp2129
Rp2130
(dp2131
g1679
g1242
sg1680
(lp2132
g1238
asg378
g1243
sbsS'syslog.h'
p2133
g352
(g1675
g354
Ntp2134
Rp2135
(dp2136
g1679
g1687
sg1680
g1709
sg378
S'f:/marmalade/7.9/s3e/h/std/syslog.h'
p2137
sbsS'IwGxFontTypes.h'
p2138
g352
(g1675
g354
Ntp2139
Rp2140
(dp2141
g1679
g1330
sg1680
g1681
sg378
g1334
sbsS'IwGeomFIntersect.h'
p2142
g352
(g1675
g354
Ntp2143
Rp2144
(dp2145
g1679
g1352
sg1680
g1737
sg378
g1392
sbsS'hash_map'
p2146
g352
(g1675
g354
Ntp2147
Rp2148
(dp2149
g1679
g1687
sg1680
g1688
sg378
S'f:/marmalade/7.9/s3e/h/std/c++/hash_map'
p2150
sbsS's3e.mkf'
p2151
g352
(g1675
g354
Ntp2152
Rp2153
(dp2154
g1679
(dp2155
sg1680
g1703
sg378
S'f:/marmalade/7.9/s3e/s3e.mkf'
p2156
sbsS'IwGeomMat2D.h.tpl'
p2157
g352
(g1675
g354
Ntp2158
Rp2159
(dp2160
g1679
g1352
sg1680
g1737
sg378
g1400
sbsS's3eOSReadString.h'
p2161
g352
(g1675
g354
Ntp2162
Rp2163
(dp2164
g1679
g1687
sg1680
g1892
sg378
S'f:/marmalade/7.9/s3e/h/ext/s3eOSReadString.h'
p2165
sbsS'map'
p2166
g352
(g1675
g354
Ntp2167
Rp2168
(dp2169
g1679
g1687
sg1680
g1688
sg378
S'f:/marmalade/7.9/s3e/h/std/c++/map'
p2170
sbsS'iwtween.mkf'
p2171
g352
(g1675
g354
Ntp2172
Rp2173
(dp2174
g1679
g1631
sg1680
(lp2175
g1627
asg378
g1629
sbsS'IwOptimiseSpeed.h'
p2176
g352
(g1675
g354
Ntp2177
Rp2178
(dp2179
g1679
g1516
sg1680
g1716
sg378
g1552
sbsS'msl_string.h'
p2180
g352
(g1675
g354
Ntp2181
Rp2182
(dp2183
g1679
g1687
sg1680
g1688
sg378
S'f:/marmalade/7.9/s3e/h/std/c++/msl_string.h'
p2184
sbsS'select.h'
p2185
g352
(g1675
g354
Ntp2186
Rp2187
(dp2188
g1679
g1687
sg1680
g1823
sg378
S'f:/marmalade/7.9/s3e/h/std/sys/select.h'
p2189
sbsS'zlib.mkf'
p2190
g352
(g1675
g354
Ntp2191
Rp2192
(dp2193
g1679
g1626
sg1680
(lp2194
g1616
asg378
g1624
sbsS'signal.h'
p2195
g352
(g1675
g354
Ntp2196
Rp2197
(dp2198
g1679
g1687
sg1680
g1709
sg378
S'f:/marmalade/7.9/s3e/h/std/signal.h'
p2199
sbsS'sigcontext.h'
p2200
g352
(g1675
g354
Ntp2201
Rp2202
(dp2203
g1679
g1687
sg1680
g1709
sg378
S'f:/marmalade/7.9/s3e/h/std/sigcontext.h'
p2204
sbsS'libpng.mkf'
p2205
g352
(g1675
g354
Ntp2206
Rp2207
(dp2208
g1679
g1229
sg1680
(lp2209
g1218
asg378
g1227
sbsS's3eClipboard.h'
p2210
g352
(g1675
g354
Ntp2211
Rp2212
(dp2213
g1679
g1687
sg1680
g1703
sg378
S'f:/marmalade/7.9/s3e/h/s3eClipboard.h'
p2214
sbsS'IwGxFuncTable.h'
p2215
g352
(g1675
g354
Ntp2216
Rp2217
(dp2218
g1679
g1452
sg1680
g1809
sg378
g1462
sbsS'IwResHandlerGROUP.h'
p2219
g352
(g1675
g354
Ntp2220
Rp2221
(dp2222
g1679
g1428
sg1680
(lp2223
g1288
ag1424
asg378
g1433
sbsS's3eDebug.h'
p2224
g352
(g1675
g354
Ntp2225
Rp2226
(dp2227
g1679
g1687
sg1680
g1703
sg378
S'f:/marmalade/7.9/s3e/h/s3eDebug.h'
p2228
sbsS'socket.h'
p2229
g352
(g1675
g354
Ntp2230
Rp2231
(dp2232
g1679
g1687
sg1680
g1823
sg378
S'f:/marmalade/7.9/s3e/h/std/sys/socket.h'
p2233
sbsS'glext.h'
p2234
g352
(g1675
g354
Ntp2235
Rp2236
(dp2237
g1679
g1687
sg1680
(lp2238
g1689
aS'GL'
p2239
aS'GLES 1.x'
p2240
asg378
S'f:/marmalade/7.9/s3e/h/GLES/glext.h'
p2241
sbsS'typeinfo.h'
p2242
g352
(g1675
g354
Ntp2243
Rp2244
(dp2245
g1679
g1687
sg1680
g1688
sg378
S'f:/marmalade/7.9/s3e/h/std/c++/typeinfo.h'
p2246
sbsS'typeinfo'
p2247
g352
(g1675
g354
Ntp2248
Rp2249
(dp2250
g1679
g1687
sg1680
g1688
sg378
S'f:/marmalade/7.9/s3e/h/std/c++/typeinfo'
p2251
sbsS'fstream.h'
p2252
g352
(g1675
g354
Ntp2253
Rp2254
(dp2255
g1679
g1687
sg1680
g1688
sg378
S'f:/marmalade/7.9/s3e/h/std/c++/fstream.h'
p2256
sbsS's3ePointer.h'
p2257
g352
(g1675
g354
Ntp2258
Rp2259
(dp2260
g1679
g1687
sg1680
g1703
sg378
S'f:/marmalade/7.9/s3e/h/s3ePointer.h'
p2261
sbsS'iw2d.mkf'
p2262
g352
(g1675
g354
Ntp2263
Rp2264
(dp2265
g1679
g1318
sg1680
g1772
sg378
g1316
sbsS'PVRTexTool.h'
p2266
g352
(g1675
g354
Ntp2267
Rp2268
(dp2269
g1679
g1275
sg1680
(lp2270
S'Extensions'
p2271
ag1269
asg378
g1281
sbsS's3eGL.h'
p2272
g352
(g1675
g354
Ntp2273
Rp2274
(dp2275
g1679
g1687
sg1680
g1703
sg378
S'f:/marmalade/7.9/s3e/h/s3eGL.h'
p2276
sbsS'IwGeomFVec2.h'
p2277
g352
(g1675
g354
Ntp2278
Rp2279
(dp2280
g1679
g1352
sg1680
g1737
sg378
g1420
sbsS'IwGeomSVec4.h'
p2281
g352
(g1675
g354
Ntp2282
Rp2283
(dp2284
g1679
g1352
sg1680
g1737
sg378
g1394
sbsS'poll.h'
p2285
g352
(g1675
g354
Ntp2286
Rp2287
(dp2288
g1679
g1687
sg1680
g1709
sg378
S'f:/marmalade/7.9/s3e/h/std/poll.h'
p2289
sbsS'IwMatAnim.h'
p2290
g352
(g1675
g354
Ntp2291
Rp2292
(dp2293
g1679
g1452
sg1680
g1809
sg378
g1488
sbsS'PVRTexTool.defines.txt'
p2294
g352
(g1675
g354
Ntp2295
Rp2296
(dp2297
g1679
g1275
sg1680
(lp2298
g2271
ag1269
ag1271
asg378
g1273
sbsS'IwGx.h'
p2299
g352
(g1675
g354
Ntp2300
Rp2301
(dp2302
g1679
g1452
sg1680
g1809
sg378
g1496
sbsS'valarray'
p2303
g352
(g1675
g354
Ntp2304
Rp2305
(dp2306
g1679
g1687
sg1680
g1688
sg378
S'f:/marmalade/7.9/s3e/h/std/c++/valarray'
p2307
sbsS'iosfwd'
p2308
g352
(g1675
g354
Ntp2309
Rp2310
(dp2311
g1679
g1687
sg1680
g1688
sg378
S'f:/marmalade/7.9/s3e/h/std/c++/iosfwd'
p2312
sbsS'gl2.h'
p2313
g352
(g1675
g354
Ntp2314
Rp2315
(dp2316
g1679
g1687
sg1680
g1924
sg378
S'f:/marmalade/7.9/s3e/h/GLES2/gl2.h'
p2317
sbsS'jpegint.h'
p2318
g352
(g1675
g354
Ntp2319
Rp2320
(dp2321
g1679
g1642
sg1680
g1767
sg378
g1651
sbsS'stdiostream.h'
p2322
g352
(g1675
g354
Ntp2323
Rp2324
(dp2325
g1679
g1687
sg1680
g1688
sg378
S'f:/marmalade/7.9/s3e/h/std/c++/stdiostream.h'
p2326
sbsS'mem.h'
p2327
g352
(g1675
g354
Ntp2328
Rp2329
(dp2330
g1679
g1687
sg1680
g1688
sg378
S'f:/marmalade/7.9/s3e/h/std/c++/mem.h'
p2331
sbsS'jerror.h'
p2332
g352
(g1675
g354
Ntp2333
Rp2334
(dp2335
g1679
g1642
sg1680
g1767
sg378
g1647
sbsS'zconf.h'
p2336
g352
(g1675
g354
Ntp2337
Rp2338
(dp2339
g1679
g1621
sg1680
(lp2340
g1616
ag1220
asg378
g1622
sbsS's3e.config.txt'
p2341
g352
(g1675
g354
Ntp2342
Rp2343
(dp2344
g1679
g1687
sg1680
g1703
sg378
S'f:/marmalade/7.9/s3e/s3e.config.txt'
p2345
sbsS'numeric'
p2346
g352
(g1675
g354
Ntp2347
Rp2348
(dp2349
g1679
g1687
sg1680
g1688
sg378
S'f:/marmalade/7.9/s3e/h/std/c++/numeric'
p2350
sbsS'utime.h'
p2351
g352
(g1675
g354
Ntp2352
Rp2353
(dp2354
g1679
g1687
sg1680
g1709
sg378
S'f:/marmalade/7.9/s3e/h/std/utime.h'
p2355
sbsS'jdhuff.h'
p2356
g352
(g1675
g354
Ntp2357
Rp2358
(dp2359
g1679
g1642
sg1680
g1767
sg378
g1655
sbsS'IwGxStream.h'
p2360
g352
(g1675
g354
Ntp2361
Rp2362
(dp2363
g1679
g1452
sg1680
g1809
sg378
g1476
sbsS'IwImage.h'
p2364
g352
(g1675
g354
Ntp2365
Rp2366
(dp2367
g1679
g1516
sg1680
g1716
sg378
g1590
sbsS's3eImagePicker.h'
p2368
g352
(g1675
g354
Ntp2369
Rp2370
(dp2371
g1679
g1687
sg1680
g1892
sg378
S'f:/marmalade/7.9/s3e/h/ext/s3eImagePicker.h'
p2372
sbsS'stdlib.h'
p2373
g352
(g1675
g354
Ntp2374
Rp2375
(dp2376
g1679
g1687
sg1680
g1709
sg378
S'f:/marmalade/7.9/s3e/h/std/stdlib.h'
p2377
sbsS'IwCopyingPtr.h'
p2378
g352
(g1675
g354
Ntp2379
Rp2380
(dp2381
g1679
g1516
sg1680
g1716
sg378
g1540
sbsS'iostream'
p2382
g352
(g1675
g354
Ntp2383
Rp2384
(dp2385
g1679
g1687
sg1680
g1688
sg378
S'f:/marmalade/7.9/s3e/h/std/c++/iostream'
p2386
sbsS'png.h'
p2387
g352
(g1675
g354
Ntp2388
Rp2389
(dp2390
g1679
g1224
sg1680
(lp2391
g1218
ag1220
asg378
g1222
sbsS'stddef.h'
p2392
g352
(g1675
g354
Ntp2393
Rp2394
(dp2395
g1679
g1687
sg1680
g1709
sg378
S'f:/marmalade/7.9/s3e/h/std/stddef.h'
p2396
sbsS'setjmp_win32.h'
p2397
g352
(g1675
g354
Ntp2398
Rp2399
(dp2400
g1679
g1687
sg1680
g1709
sg378
S'f:/marmalade/7.9/s3e/h/std/setjmp_win32.h'
p2401
sbsS'IwGxPrint.h'
p2402
g352
(g1675
g354
Ntp2403
Rp2404
(dp2405
g1679
g1452
sg1680
g1809
sg378
g1470
sbsS'iwgx_public.defines.txt'
p2406
g352
(g1675
g354
Ntp2407
Rp2408
(dp2409
g1679
g1452
sg1680
g1809
sg378
g1455
sbsS'streambuf.h'
p2410
g352
(g1675
g354
Ntp2411
Rp2412
(dp2413
g1679
g1687
sg1680
g1688
sg378
S'f:/marmalade/7.9/s3e/h/std/c++/streambuf.h'
p2414
sbsS'IwGeomFPlane.h'
p2415
g352
(g1675
g354
Ntp2416
Rp2417
(dp2418
g1679
g1352
sg1680
g1737
sg378
g1372
sbsS'wchar.h'
p2419
g352
(g1675
g354
Ntp2420
Rp2421
(dp2422
g1679
g1687
sg1680
g1709
sg378
S'f:/marmalade/7.9/s3e/h/std/wchar.h'
p2423
sbsS's3eCameraCapture.h'
p2424
g352
(g1675
g354
Ntp2425
Rp2426
(dp2427
g1679
g1687
sg1680
g1892
sg378
S'f:/marmalade/7.9/s3e/h/ext/s3eCameraCapture.h'
p2428
sbsS'eglext.h'
p2429
g352
(g1675
g354
Ntp2430
Rp2431
(dp2432
g1679
g1687
sg1680
g2016
sg378
S'f:/marmalade/7.9/s3e/h/EGL/eglext.h'
p2433
sbsS'IwResHandlerImage.h'
p2434
g352
(g1675
g354
Ntp2435
Rp2436
(dp2437
g1679
g1428
sg1680
g2223
sg378
g1442
sbsS'strstream.h'
p2438
g352
(g1675
g354
Ntp2439
Rp2440
(dp2441
g1679
g1687
sg1680
g1688
sg378
S'f:/marmalade/7.9/s3e/h/std/c++/strstream.h'
p2442
sbsS'tiniconv.h'
p2443
g352
(g1675
g354
Ntp2444
Rp2445
(dp2446
g1679
g1242
sg1680
g2132
sg378
g1240
sbsS'IwGLExt.h'
p2447
g352
(g1675
g354
Ntp2448
Rp2449
(dp2450
g1679
g1306
sg1680
g1697
sg378
g1312
sbsS'app.icf'
p2451
g352
(g1675
g354
Ntp2452
Rp2453
(dp2454
g1679
(dp2455
sg1680
g4
sg378
S'f:/Users/Teal/Documents/Marmalade/words/data/app.icf'
p2456
sbsS'IwClassFactory.h'
p2457
g352
(g1675
g354
Ntp2458
Rp2459
(dp2460
g1679
g1516
sg1680
g1716
sg378
g1588
sbsS'file.h'
p2461
g352
(g1675
g354
Ntp2462
Rp2463
(dp2464
g1679
g1687
sg1680
g1823
sg378
S'f:/marmalade/7.9/s3e/h/std/sys/file.h'
p2465
sbsS'cstring'
p2466
g352
(g1675
g354
Ntp2467
Rp2468
(dp2469
g1679
g1687
sg1680
g1688
sg378
S'f:/marmalade/7.9/s3e/h/std/c++/cstring'
p2470
sbsS'iwutil.config.txt'
p2471
g352
(g1675
g354
Ntp2472
Rp2473
(dp2474
g1679
g1516
sg1680
g1716
sg378
g1592
sbsS's3eSMS.h'
p2475
g352
(g1675
g354
Ntp2476
Rp2477
(dp2478
g1679
g1687
sg1680
g1892
sg378
S'f:/marmalade/7.9/s3e/h/ext/s3eSMS.h'
p2479
sbsS'limits.h'
p2480
g352
(g1675
g354
Ntp2481
Rp2482
(dp2483
g1679
g1687
sg1680
g1709
sg378
S'f:/marmalade/7.9/s3e/h/std/limits.h'
p2484
sbsS'iwgl.config.txt'
p2485
g352
(g1675
g354
Ntp2486
Rp2487
(dp2488
g1679
g1306
sg1680
g1697
sg378
g1310
sbsS'IwMaterial.h'
p2489
g352
(g1675
g354
Ntp2490
Rp2491
(dp2492
g1679
g1452
sg1680
g1809
sg378
g1460
sbsS'amazon-ads-ios-sdk.mkf'
p2493
g352
(g1675
g354
Ntp2494
Rp2495
(dp2496
g1679
g1252
sg1680
(lp2497
g1248
asg378
g1250
sbsS'PVRTexTool_interface.cpp'
p2498
g352
(g1675
g354
Ntp2499
Rp2500
(dp2501
g1679
g1275
sg1680
g2298
sg378
g1276
sbsS'IwGxSurface.h'
p2502
g352
(g1675
g354
Ntp2503
Rp2504
(dp2505
g1679
g1452
sg1680
g1809
sg378
g1453
sbsS's3eSocket.h'
p2506
g352
(g1675
g354
Ntp2507
Rp2508
(dp2509
g1679
g1687
sg1680
g1703
sg378
S'f:/marmalade/7.9/s3e/h/s3eSocket.h'
p2510
sbsS'IwAutoFile.h'
p2511
g352
(g1675
g354
Ntp2512
Rp2513
(dp2514
g1679
g1516
sg1680
g1716
sg378
g1584
sbsS'ipc.h'
p2515
g352
(g1675
g354
Ntp2516
Rp2517
(dp2518
g1679
g1687
sg1680
g1823
sg378
S'f:/marmalade/7.9/s3e/h/std/sys/ipc.h'
p2519
sbsS'poll_1.h'
p2520
g352
(g1675
g354
Ntp2521
Rp2522
(dp2523
g1679
g1687
sg1680
g1823
sg378
S'f:/marmalade/7.9/s3e/h/std/sys/poll.h'
p2524
sbsS's3eThread.h'
p2525
g352
(g1675
g354
Ntp2526
Rp2527
(dp2528
g1679
g1687
sg1680
g1703
sg378
S'f:/marmalade/7.9/s3e/h/s3eThread.h'
p2529
sbsS'ucontext.h'
p2530
g352
(g1675
g354
Ntp2531
Rp2532
(dp2533
g1679
g1687
sg1680
g1709
sg378
S'f:/marmalade/7.9/s3e/h/std/ucontext.h'
p2534
sbsS'time.h'
p2535
g352
(g1675
g354
Ntp2536
Rp2537
(dp2538
g1679
g1687
sg1680
g1709
sg378
S'f:/marmalade/7.9/s3e/h/std/time.h'
p2539
sbsS'jchuff.h'
p2540
g352
(g1675
g354
Ntp2541
Rp2542
(dp2543
g1679
g1642
sg1680
g1767
sg378
g1645
sbsS's3eSoundRecord.h'
p2544
g352
(g1675
g354
Ntp2545
Rp2546
(dp2547
g1679
g1687
sg1680
g1703
sg378
S'f:/marmalade/7.9/s3e/h/s3eSoundRecord.h'
p2548
sbsS'IwFibre.h'
p2549
g352
(g1675
g354
Ntp2550
Rp2551
(dp2552
g1679
g1516
sg1680
g1716
sg378
g1598
sbsS's3eVersion.h'
p2553
g352
(g1675
g354
Ntp2554
Rp2555
(dp2556
g1679
g1687
sg1680
g1703
sg378
S'f:/marmalade/7.9/s3e/h/s3eVersion.h'
p2557
sbsS'IwGxFontGlyph.h'
p2558
g352
(g1675
g354
Ntp2559
Rp2560
(dp2561
g1679
g1330
sg1680
g1681
sg378
g1344
sbsS's3eTypes.h'
p2562
g352
(g1675
g354
Ntp2563
Rp2564
(dp2565
g1679
g1687
sg1680
g1703
sg378
S'f:/marmalade/7.9/s3e/h/s3eTypes.h'
p2566
sbsS'signal_2.h'
p2567
g352
(g1675
g354
Ntp2568
Rp2569
(dp2570
g1679
g1687
sg1680
g1688
sg378
S'f:/marmalade/7.9/s3e/h/std/c++/signal.h'
p2571
sbsS'termios.h'
p2572
g352
(g1675
g354
Ntp2573
Rp2574
(dp2575
g1679
g1687
sg1680
g1709
sg378
S'f:/marmalade/7.9/s3e/h/std/termios.h'
p2576
sbsS's3eAmazonAds_interface.cpp'
p2577
g352
(g1675
g354
Ntp2578
Rp2579
(dp2580
g1679
g1261
sg1680
(lp2581
g1253
ag1255
ag1257
asg378
g1259
sbsS'iw2dscenegraph.mkf'
p2582
g352
(g1675
g354
Ntp2583
Rp2584
(dp2585
g1679
g1299
sg1680
g1932
sg378
g1297
sbsS'slist'
p2586
g352
(g1675
g354
Ntp2587
Rp2588
(dp2589
g1679
g1687
sg1680
g1688
sg378
S'f:/marmalade/7.9/s3e/h/std/c++/slist'
p2590
sbsS'cstdlib'
p2591
g352
(g1675
g354
Ntp2592
Rp2593
(dp2594
g1679
g1687
sg1680
g1688
sg378
S'f:/marmalade/7.9/s3e/h/std/c++/cstdlib'
p2595
sbsS's3eLocation.h'
p2596
g352
(g1675
g354
Ntp2597
Rp2598
(dp2599
g1679
g1687
sg1680
g1703
sg378
S'f:/marmalade/7.9/s3e/h/s3eLocation.h'
p2600
sbsS'IwMemBucketHelpers.h'
p2601
g352
(g1675
g354
Ntp2602
Rp2603
(dp2604
g1679
g1516
sg1680
g1716
sg378
g1600
sbsS's3eHash.h'
p2605
g352
(g1675
g354
Ntp2606
Rp2607
(dp2608
g1679
g1687
sg1680
g1703
sg378
S'f:/marmalade/7.9/s3e/h/s3eHash.h'
p2609
sbsS'IwGeomFMat.h'
p2610
g352
(g1675
g354
Ntp2611
Rp2612
(dp2613
g1679
g1352
sg1680
g1737
sg378
g1404
sbsS'type_traits.h'
p2614
g352
(g1675
g354
Ntp2615
Rp2616
(dp2617
g1679
g1687
sg1680
g1688
sg378
S'f:/marmalade/7.9/s3e/h/std/c++/type_traits.h'
p2618
sbsS's3eAtomic.h'
p2619
g352
(g1675
g354
Ntp2620
Rp2621
(dp2622
g1679
g1687
sg1680
g1703
sg378
S'f:/marmalade/7.9/s3e/h/s3eAtomic.h'
p2623
sbsS'IwMenu.h'
p2624
g352
(g1675
g354
Ntp2625
Rp2626
(dp2627
g1679
g1516
sg1680
g1716
sg378
g1538
sbsS'IwResHandlerITX.h'
p2628
g352
(g1675
g354
Ntp2629
Rp2630
(dp2631
g1679
g1428
sg1680
g2223
sg378
g1429
sbsS'IwArray.h'
p2632
g352
(g1675
g354
Ntp2633
Rp2634
(dp2635
g1679
g1516
sg1680
g1716
sg378
g1550
sbsS'IwUTF8.h'
p2636
g352
(g1675
g354
Ntp2637
Rp2638
(dp2639
g1679
g1516
sg1680
g1716
sg378
g1582
sbsS'math_rvct.h'
p2640
g352
(g1675
g354
Ntp2641
Rp2642
(dp2643
g1679
g1687
sg1680
g1709
sg378
S'f:/marmalade/7.9/s3e/h/std/math_rvct.h'
p2644
sbsS'IwUtil.h'
p2645
g352
(g1675
g354
Ntp2646
Rp2647
(dp2648
g1679
g1516
sg1680
g1716
sg378
g1517
sbsS'IwFColour.h'
p2649
g352
(g1675
g354
Ntp2650
Rp2651
(dp2652
g1679
g1452
sg1680
g1809
sg378
g1490
sbsS's3eamazonads.mkf'
p2653
g352
(g1675
g354
Ntp2654
Rp2655
(dp2656
g1679
g1266
sg1680
(lp2657
g1253
ag1255
asg378
g1264
sbsS'wctype.h'
p2658
g352
(g1675
g354
Ntp2659
Rp2660
(dp2661
g1679
g1687
sg1680
g1709
sg378
S'f:/marmalade/7.9/s3e/h/std/wctype.h'
p2662
sbsS'cstddef'
p2663
g352
(g1675
g354
Ntp2664
Rp2665
(dp2666
g1679
g1687
sg1680
g1688
sg378
S'f:/marmalade/7.9/s3e/h/std/c++/cstddef'
p2667
sbsS'assert.h'
p2668
g352
(g1675
g354
Ntp2669
Rp2670
(dp2671
g1679
g1687
sg1680
g1709
sg378
S'f:/marmalade/7.9/s3e/h/std/assert.h'
p2672
sbsS'mman.h'
p2673
g352
(g1675
g354
Ntp2674
Rp2675
(dp2676
g1679
g1687
sg1680
g1823
sg378
S'f:/marmalade/7.9/s3e/h/std/sys/mman.h'
p2677
sbsS'IwRandom.h'
p2678
g352
(g1675
g354
Ntp2679
Rp2680
(dp2681
g1679
g1516
sg1680
g1716
sg378
g1560
sbsS'libgen.h'
p2682
g352
(g1675
g354
Ntp2683
Rp2684
(dp2685
g1679
g1687
sg1680
g1709
sg378
S'f:/marmalade/7.9/s3e/h/std/libgen.h'
p2686
sbsS'utsname.h'
p2687
g352
(g1675
g354
Ntp2688
Rp2689
(dp2690
g1679
g1687
sg1680
g1823
sg378
S'f:/marmalade/7.9/s3e/h/std/sys/utsname.h'
p2691
sbsS'wait.h'
p2692
g352
(g1675
g354
Ntp2693
Rp2694
(dp2695
g1679
g1687
sg1680
g1823
sg378
S'f:/marmalade/7.9/s3e/h/std/sys/wait.h'
p2696
sbsS'param.h'
p2697
g352
(g1675
g354
Ntp2698
Rp2699
(dp2700
g1679
g1687
sg1680
g1823
sg378
S'f:/marmalade/7.9/s3e/h/std/sys/param.h'
p2701
sbsS'IwDivide.h'
p2702
g352
(g1675
g354
Ntp2703
Rp2704
(dp2705
g1679
g1516
sg1680
g1716
sg378
g1610
sbsS'Iw2DSceneGraphCore.cpp'
p2706
g352
(g1675
g354
Ntp2707
Rp2708
(dp2709
g1679
g1506
sg1680
(lp2710
S"'Marmalade Studio'"
p2711
ag1502
asg378
g1504
sbsS'IwResManager.h'
p2712
g352
(g1675
g354
Ntp2713
Rp2714
(dp2715
g1679
g1428
sg1680
g2223
sg378
g1446
sbsS'ostream'
p2716
g352
(g1675
g354
Ntp2717
Rp2718
(dp2719
g1679
g1687
sg1680
g1688
sg378
S'f:/marmalade/7.9/s3e/h/std/c++/ostream'
p2720
sbsS'cwctype'
p2721
g352
(g1675
g354
Ntp2722
Rp2723
(dp2724
g1679
g1687
sg1680
g1688
sg378
S'f:/marmalade/7.9/s3e/h/std/c++/cwctype'
p2725
sbsS'set'
p2726
g352
(g1675
g354
Ntp2727
Rp2728
(dp2729
g1679
g1687
sg1680
g1688
sg378
S'f:/marmalade/7.9/s3e/h/std/c++/set'
p2730
sbsS'IwGeomSQuat.h'
p2731
g352
(g1675
g354
Ntp2732
Rp2733
(dp2734
g1679
g1352
sg1680
g1737
sg378
g1355
sbsS'locale'
p2735
g352
(g1675
g354
Ntp2736
Rp2737
(dp2738
g1679
g1687
sg1680
g1688
sg378
S'f:/marmalade/7.9/s3e/h/std/c++/locale'
p2739
sbsS'cstdio'
p2740
g352
(g1675
g354
Ntp2741
Rp2742
(dp2743
g1679
g1687
sg1680
g1688
sg378
S'f:/marmalade/7.9/s3e/h/std/c++/cstdio'
p2744
sbsS'cdjpeg.h'
p2745
g352
(g1675
g354
Ntp2746
Rp2747
(dp2748
g1679
g1642
sg1680
g1767
sg378
g1661
sbsS'IwList.h'
p2749
g352
(g1675
g354
Ntp2750
Rp2751
(dp2752
g1679
g1516
sg1680
g1716
sg378
g1606
sbsS'inttypes.h'
p2753
g352
(g1675
g354
Ntp2754
Rp2755
(dp2756
g1679
g1687
sg1680
g1709
sg378
S'f:/marmalade/7.9/s3e/h/std/inttypes.h'
p2757
sbsS'dirent.h'
p2758
g352
(g1675
g354
Ntp2759
Rp2760
(dp2761
g1679
g1687
sg1680
g1709
sg378
S'f:/marmalade/7.9/s3e/h/std/dirent.h'
p2762
sbsS'IwGeomVec3.h'
p2763
g352
(g1675
g354
Ntp2764
Rp2765
(dp2766
g1679
g1352
sg1680
g1737
sg378
g1412
sbsS'transupp.h'
p2767
g352
(g1675
g354
Ntp2768
Rp2769
(dp2770
g1679
g1642
sg1680
g1767
sg378
g1643
sbsS'IwMath.h'
p2771
g352
(g1675
g354
Ntp2772
Rp2773
(dp2774
g1679
g1516
sg1680
g1716
sg378
g1546
sbsS'IwGeomQuat.h'
p2775
g352
(g1675
g354
Ntp2776
Rp2777
(dp2778
g1679
g1352
sg1680
g1737
sg378
g1390
sbsS'glplatform.h'
p2779
g352
(g1675
g354
Ntp2780
Rp2781
(dp2782
g1679
g1687
sg1680
g2238
sg378
S'f:/marmalade/7.9/s3e/h/GLES/glplatform.h'
p2783
sbsS's3e-default.mkf'
p2784
g352
(g1675
g354
Ntp2785
Rp2786
(dp2787
g1679
g1287
sg1680
(lp2788
g1283
asg378
g1285
sbsS'bitset'
p2789
g352
(g1675
g354
Ntp2790
Rp2791
(dp2792
g1679
g1687
sg1680
g1688
sg378
S'f:/marmalade/7.9/s3e/h/std/c++/bitset'
p2793
sbsS'alloca.h'
p2794
g352
(g1675
g354
Ntp2795
Rp2796
(dp2797
g1679
g1687
sg1680
g1709
sg378
S'f:/marmalade/7.9/s3e/h/std/alloca.h'
p2798
sbsS'IwResHandler.h'
p2799
g352
(g1675
g354
Ntp2800
Rp2801
(dp2802
g1679
g1428
sg1680
g2223
sg378
g1435
sbsS'IwResHandlerMTL.h'
p2803
g352
(g1675
g354
Ntp2804
Rp2805
(dp2806
g1679
g1452
sg1680
g1809
sg378
g1492
sbsS'IwRuntime.h'
p2807
g352
(g1675
g354
Ntp2808
Rp2809
(dp2810
g1679
g1516
sg1680
g1716
sg378
g1528
sbsS'limits'
p2811
g352
(g1675
g354
Ntp2812
Rp2813
(dp2814
g1679
g1687
sg1680
g1688
sg378
S'f:/marmalade/7.9/s3e/h/std/c++/limits'
p2815
sbsS'IwGeomBBox.h'
p2816
g352
(g1675
g354
Ntp2817
Rp2818
(dp2819
g1679
g1352
sg1680
g1737
sg378
g1408
sbsS's3eContacts.h'
p2820
g352
(g1675
g354
Ntp2821
Rp2822
(dp2823
g1679
g1687
sg1680
g1703
sg378
S'f:/marmalade/7.9/s3e/h/s3eContacts.h'
p2824
sbsS's3eLicense.h'
p2825
g352
(g1675
g354
Ntp2826
Rp2827
(dp2828
g1679
g1687
sg1680
g1703
sg378
S'f:/marmalade/7.9/s3e/h/s3eLicense.h'
p2829
sbsS'iwgx.config.txt'
p2830
g352
(g1675
g354
Ntp2831
Rp2832
(dp2833
g1679
g1452
sg1680
g1809
sg378
g1494
sbsS'IwTextParser.h'
p2834
g352
(g1675
g354
Ntp2835
Rp2836
(dp2837
g1679
g1516
sg1680
g1716
sg378
g1586
sbsS's3eTimer.h'
p2838
g352
(g1675
g354
Ntp2839
Rp2840
(dp2841
g1679
g1687
sg1680
g1703
sg378
S'f:/marmalade/7.9/s3e/h/s3eTimer.h'
p2842
sbsS'IwGeomVec.h'
p2843
g352
(g1675
g354
Ntp2844
Rp2845
(dp2846
g1679
g1352
sg1680
g1737
sg378
g1366
sbsS'IwSerialise.h'
p2847
g352
(g1675
g354
Ntp2848
Rp2849
(dp2850
g1679
g1516
sg1680
g1716
sg378
g1519
sbsS'cstdarg'
p2851
g352
(g1675
g354
Ntp2852
Rp2853
(dp2854
g1679
g1687
sg1680
g1688
sg378
S'f:/marmalade/7.9/s3e/h/std/c++/cstdarg'
p2855
sbsS'gl2ext.h'
p2856
g352
(g1675
g354
Ntp2857
Rp2858
(dp2859
g1679
g1687
sg1680
g1924
sg378
S'f:/marmalade/7.9/s3e/h/GLES2/gl2ext.h'
p2860
sbsS'IwChar.h'
p2861
g352
(g1675
g354
Ntp2862
Rp2863
(dp2864
g1679
g1516
sg1680
g1716
sg378
g1530
sbsS's3eSound.h'
p2865
g352
(g1675
g354
Ntp2866
Rp2867
(dp2868
g1679
g1687
sg1680
g1703
sg378
S'f:/marmalade/7.9/s3e/h/s3eSound.h'
p2869
sbsS'IwOptimiseThumb.h'
p2870
g352
(g1675
g354
Ntp2871
Rp2872
(dp2873
g1679
g1516
sg1680
g1716
sg378
g1548
sbsS'exception.h'
p2874
g352
(g1675
g354
Ntp2875
Rp2876
(dp2877
g1679
g1687
sg1680
g1688
sg378
S'f:/marmalade/7.9/s3e/h/std/c++/exception.h'
p2878
sbsS'iwgeom.config.txt'
p2879
g352
(g1675
g354
Ntp2880
Rp2881
(dp2882
g1679
g1352
sg1680
g1737
sg378
g1388
sbsS'gl31.h'
p2883
g352
(g1675
g354
Ntp2884
Rp2885
(dp2886
g1679
g1687
sg1680
g1984
sg378
S'f:/marmalade/7.9/s3e/h/GLES3/gl31.h'
p2887
sbsS'gl.h'
p2888
g352
(g1675
g354
Ntp2889
Rp2890
(dp2891
g1679
g1687
sg1680
g2238
sg378
S'f:/marmalade/7.9/s3e/h/GLES/gl.h'
p2892
sbsS'zlib.h'
p2893
g352
(g1675
g354
Ntp2894
Rp2895
(dp2896
g1679
g1621
sg1680
g2340
sg378
g1619
sbsS'temp_defines_release.h'
p2897
g352
(g1675
g354
Ntp2898
Rp2899
(dp2900
g1679
(lp2901
sg1680
(lp2902
S"'generated files'"
p2903
asg378
S'f:/Users/Teal/Documents/Marmalade/words/build_words_vc12x/temp_defines_release.h'
p2904
sbsS'iwgl.mkf'
p2905
g352
(g1675
g354
Ntp2906
Rp2907
(dp2908
g1679
g1309
sg1680
g1697
sg378
g1307
sbsS'IwColour.h'
p2909
g352
(g1675
g354
Ntp2910
Rp2911
(dp2912
g1679
g1452
sg1680
g1809
sg378
g1480
sbsS's3eLibrary.h'
p2913
g352
(g1675
g354
Ntp2914
Rp2915
(dp2916
g1679
g1687
sg1680
g1892
sg378
S'f:/marmalade/7.9/s3e/h/ext/s3eLibrary.h'
p2917
sbsS'types.h'
p2918
g352
(g1675
g354
Ntp2919
Rp2920
(dp2921
g1679
g1687
sg1680
g1823
sg378
S'f:/marmalade/7.9/s3e/h/std/sys/types.h'
p2922
sbsS'ifaddrs.h'
p2923
g352
(g1675
g354
Ntp2924
Rp2925
(dp2926
g1679
g1687
sg1680
g1709
sg378
S'f:/marmalade/7.9/s3e/h/std/ifaddrs.h'
p2927
sbsS'strstream'
p2928
g352
(g1675
g354
Ntp2929
Rp2930
(dp2931
g1679
g1687
sg1680
g1688
sg378
S'f:/marmalade/7.9/s3e/h/std/c++/strstream'
p2932
sbsS'IwTween.cpp'
p2933
g352
(g1675
g354
Ntp2934
Rp2935
(dp2936
g1679
g1634
sg1680
g2175
sg378
g1632
sbsS'exception'
p2937
g352
(g1675
g354
Ntp2938
Rp2939
(dp2940
g1679
g1687
sg1680
g1688
sg378
S'f:/marmalade/7.9/s3e/h/std/c++/exception'
p2941
sbsS's3eAmazonAds.defines.txt'
p2942
g352
(g1675
g354
Ntp2943
Rp2944
(dp2945
g1679
g1261
sg1680
g2581
sg378
g1262
sbsS'rlocks.h'
p2946
g352
(g1675
g354
Ntp2947
Rp2948
(dp2949
g1679
g1687
sg1680
g1688
sg378
S'f:/marmalade/7.9/s3e/h/std/c++/rlocks.h'
p2950
sbsS'ioctl.h'
p2951
g352
(g1675
g354
Ntp2952
Rp2953
(dp2954
g1679
g1687
sg1680
g1823
sg378
S'f:/marmalade/7.9/s3e/h/std/sys/ioctl.h'
p2955
sbsS'rope'
p2956
g352
(g1675
g354
Ntp2957
Rp2958
(dp2959
g1679
g1687
sg1680
g1688
sg378
S'f:/marmalade/7.9/s3e/h/std/c++/rope'
p2960
sbsS'jinclude.h'
p2961
g352
(g1675
g354
Ntp2962
Rp2963
(dp2964
g1679
g1642
sg1680
g1767
sg378
g1653
sbsS'IwEvent.h'
p2965
g352
(g1675
g354
Ntp2966
Rp2967
(dp2968
g1679
g1516
sg1680
g1716
sg378
g1554
sbsS'IwOptimiseSize.h'
p2969
g352
(g1675
g354
Ntp2970
Rp2971
(dp2972
g1679
g1516
sg1680
g1716
sg378
g1614
sbsS'iwgxfont_public.defines.txt'
p2973
g352
(g1675
g354
Ntp2974
Rp2975
(dp2976
g1679
g1330
sg1680
g1681
sg378
g1340
sbsS'iconv.h'
p2977
g352
(g1675
g354
Ntp2978
Rp2979
(dp2980
g1679
g1687
sg1680
g1709
sg378
S'f:/marmalade/7.9/s3e/h/std/iconv.h'
p2981
sbsS'sendfile.h'
p2982
g352
(g1675
g354
Ntp2983
Rp2984
(dp2985
g1679
g1687
sg1680
g1823
sg378
S'f:/marmalade/7.9/s3e/h/std/sys/sendfile.h'
p2986
sbsS'IwGeomSphere.h'
p2987
g352
(g1675
g354
Ntp2988
Rp2989
(dp2990
g1679
g1352
sg1680
g1737
sg378
g1374
sbsS'tiniconv.mkf'
p2991
g352
(g1675
g354
Ntp2992
Rp2993
(dp2994
g1679
g1247
sg1680
g2132
sg378
g1245
sbsS'IwResManagerClass.h'
p2995
g352
(g1675
g354
Ntp2996
Rp2997
(dp2998
g1679
g1428
sg1680
g2223
sg378
g1426
sbsS'jdct.h'
p2999
g352
(g1675
g354
Ntp3000
Rp3001
(dp3002
g1679
g1642
sg1680
g1767
sg378
g1663
sbsS'cctype'
p3003
g352
(g1675
g354
Ntp3004
Rp3005
(dp3006
g1679
g1687
sg1680
g1688
sg378
S'f:/marmalade/7.9/s3e/h/std/c++/cctype'
p3007
sbsS's3eConfig.h'
p3008
g352
(g1675
g354
Ntp3009
Rp3010
(dp3011
g1679
g1687
sg1680
g1703
sg378
S'f:/marmalade/7.9/s3e/h/s3eConfig.h'
p3012
sbsS'IwHashString.h'
p3013
g352
(g1675
g354
Ntp3014
Rp3015
(dp3016
g1679
g1516
sg1680
g1716
sg378
g1564
sbsS'stat.h'
p3017
g352
(g1675
g354
Ntp3018
Rp3019
(dp3020
g1679
g1687
sg1680
g1823
sg378
S'f:/marmalade/7.9/s3e/h/std/sys/stat.h'
p3021
sbsS'byteswap.h'
p3022
g352
(g1675
g354
Ntp3023
Rp3024
(dp3025
g1679
g1687
sg1680
g1709
sg378
S'f:/marmalade/7.9/s3e/h/std/byteswap.h'
p3026
sbsS'iwresmanager.mkf'
p3027
g352
(g1675
g354
Ntp3028
Rp3029
(dp3030
g1679
g1441
sg1680
g2223
sg378
g1439
sbsS'IwUtilInitTerm.h'
p3031
g352
(g1675
g354
Ntp3032
Rp3033
(dp3034
g1679
g1516
sg1680
g1716
sg378
g1576
sbsS'pthread_1.h'
p3035
g352
(g1675
g354
Ntp3036
Rp3037
(dp3038
g1679
g1687
sg1680
g1688
sg378
S'f:/marmalade/7.9/s3e/h/std/c++/pthread.h'
p3039
sbsS'IwMemBucket.h'
p3040
g352
(g1675
g354
Ntp3041
Rp3042
(dp3043
g1679
g1516
sg1680
g1716
sg378
g1612
sbsS'complex'
p3044
g352
(g1675
g354
Ntp3045
Rp3046
(dp3047
g1679
g1687
sg1680
g1688
sg378
S'f:/marmalade/7.9/s3e/h/std/c++/complex'
p3048
sbsS'algorithm'
p3049
g352
(g1675
g354
Ntp3050
Rp3051
(dp3052
g1679
g1687
sg1680
g1688
sg378
S'f:/marmalade/7.9/s3e/h/std/c++/algorithm'
p3053
sbsS's3e.icf'
p3054
g352
(g1675
g354
Ntp3055
Rp3056
(dp3057
g1679
g1687
sg1680
g1703
sg378
S'f:/marmalade/7.9/s3e/s3e.icf'
p3058
sbsS'IwVariableBitField.h'
p3059
g352
(g1675
g354
Ntp3060
Rp3061
(dp3062
g1679
g1516
sg1680
g1716
sg378
g1578
sbsS'sem.h'
p3063
g352
(g1675
g354
Ntp3064
Rp3065
(dp3066
g1679
g1687
sg1680
g1823
sg378
S'f:/marmalade/7.9/s3e/h/std/sys/sem.h'
p3067
sbsS'IwGxFontState.h'
p3068
g352
(g1675
g354
Ntp3069
Rp3070
(dp3071
g1679
g1330
sg1680
g1681
sg378
g1328
sbsS'stdio.h'
p3072
g352
(g1675
g354
Ntp3073
Rp3074
(dp3075
g1679
g1687
sg1680
g1709
sg378
S'f:/marmalade/7.9/s3e/h/std/stdio.h'
p3076
sbsS'jmemsys.h'
p3077
g352
(g1675
g354
Ntp3078
Rp3079
(dp3080
g1679
g1642
sg1680
g1767
sg378
g1665
sbsS'ios'
p3081
g352
(g1675
g354
Ntp3082
Rp3083
(dp3084
g1679
g1687
sg1680
g1688
sg378
S'f:/marmalade/7.9/s3e/h/std/c++/ios'
p3085
sbsS'IwTween.h'
p3086
g352
(g1675
g354
Ntp3087
Rp3088
(dp3089
g1679
g1634
sg1680
g2175
sg378
g1635
sbsS'IwGeomFVec4.h'
p3090
g352
(g1675
g354
Ntp3091
Rp3092
(dp3093
g1679
g1352
sg1680
g1737
sg378
g1410
sbsS'stack'
p3094
g352
(g1675
g354
Ntp3095
Rp3096
(dp3097
g1679
g1687
sg1680
g1688
sg378
S'f:/marmalade/7.9/s3e/h/std/c++/stack'
p3098
sbsS'new.h'
p3099
g352
(g1675
g354
Ntp3100
Rp3101
(dp3102
g1679
g1687
sg1680
g1688
sg378
S'f:/marmalade/7.9/s3e/h/std/c++/new.h'
p3103
sbsS's3eAmazonAds.h'
p3104
g352
(g1675
g354
Ntp3105
Rp3106
(dp3107
g1679
g1261
sg1680
g2657
sg378
g1267
sbsS's3eEMail.h'
p3108
g352
(g1675
g354
Ntp3109
Rp3110
(dp3111
g1679
g1687
sg1680
g1892
sg378
S'f:/marmalade/7.9/s3e/h/ext/s3eEMail.h'
p3112
sbsS's3eVideo.h'
p3113
g352
(g1675
g354
Ntp3114
Rp3115
(dp3116
g1679
g1687
sg1680
g1703
sg378
S'f:/marmalade/7.9/s3e/h/s3eVideo.h'
p3117
sbsS'pngconf.h'
p3118
g352
(g1675
g354
Ntp3119
Rp3120
(dp3121
g1679
g1224
sg1680
g2391
sg378
g1225
sbsS'pwd.h'
p3122
g352
(g1675
g354
Ntp3123
Rp3124
(dp3125
g1679
g1687
sg1680
g1709
sg378
S'f:/marmalade/7.9/s3e/h/std/pwd.h'
p3126
sbsS'gl3.h'
p3127
g352
(g1675
g354
Ntp3128
Rp3129
(dp3130
g1679
g1687
sg1680
g1984
sg378
S'f:/marmalade/7.9/s3e/h/GLES3/gl3.h'
p3131
sbsS'IwClip.h'
p3132
g352
(g1675
g354
Ntp3133
Rp3134
(dp3135
g1679
g1452
sg1680
g1809
sg378
g1468
sbsS'iwresmanager.config.txt'
p3136
g352
(g1675
g354
Ntp3137
Rp3138
(dp3139
g1679
g1428
sg1680
g2223
sg378
g1431
sbsS'IwGxShaderTechnique.h'
p3140
g352
(g1675
g354
Ntp3141
Rp3142
(dp3143
g1679
g1452
sg1680
g1809
sg378
g1498
sbsS'IwCore.h'
p3144
g352
(g1675
g354
Ntp3145
Rp3146
(dp3147
g1679
g1516
sg1680
g1716
sg378
g1562
sbsS'cfloat'
p3148
g352
(g1675
g354
Ntp3149
Rp3150
(dp3151
g1679
g1687
sg1680
g1688
sg378
S'f:/marmalade/7.9/s3e/h/std/c++/cfloat'
p3152
sbsS'IwGeomMat2D.h'
p3153
g352
(g1675
g354
Ntp3154
Rp3155
(dp3156
g1679
g1352
sg1680
g1737
sg378
g1378
sbsS'IwAllocator.h'
p3157
g352
(g1675
g354
Ntp3158
Rp3159
(dp3160
g1679
g1516
sg1680
g1716
sg378
g1596
sbsS'IwPath.h'
p3161
g352
(g1675
g354
Ntp3162
Rp3163
(dp3164
g1679
g1516
sg1680
g1716
sg378
g1574
sbsS'iwgxfont.mkf'
p3165
g352
(g1675
g354
Ntp3166
Rp3167
(dp3168
g1679
g1333
sg1680
g1681
sg378
g1331
sbsS'IwTexture.h'
p3169
g352
(g1675
g354
Ntp3170
Rp3171
(dp3172
g1679
g1452
sg1680
g1809
sg378
g1478
sbsS'IwGeomVec.h.tpl'
p3173
g352
(g1675
g354
Ntp3174
Rp3175
(dp3176
g1679
g1352
sg1680
g1737
sg378
g1396
sbsS's3eAccelerometer.h'
p3177
g352
(g1675
g354
Ntp3178
Rp3179
(dp3180
g1679
g1687
sg1680
g1703
sg378
S'f:/marmalade/7.9/s3e/h/s3eAccelerometer.h'
p3181
sbsS'setjmp.h'
p3182
g352
(g1675
g354
Ntp3183
Rp3184
(dp3185
g1679
g1687
sg1680
g1709
sg378
S'f:/marmalade/7.9/s3e/h/std/setjmp.h'
p3186
sbsS'IwFile.h'
p3187
g352
(g1675
g354
Ntp3188
Rp3189
(dp3190
g1679
g1516
sg1680
g1716
sg378
g1542
sbsS'IwTextParseable.h'
p3191
g352
(g1675
g354
Ntp3192
Rp3193
(dp3194
g1679
g1516
sg1680
g1716
sg378
g1556
sbsS'istream.h'
p3195
g352
(g1675
g354
Ntp3196
Rp3197
(dp3198
g1679
g1687
sg1680
g1688
sg378
S'f:/marmalade/7.9/s3e/h/std/c++/istream.h'
p3199
sbsS'stdint.h'
p3200
g352
(g1675
g354
Ntp3201
Rp3202
(dp3203
g1679
g1687
sg1680
g1709
sg378
S'f:/marmalade/7.9/s3e/h/std/stdint.h'
p3204
sbsS'semaphore.h'
p3205
g352
(g1675
g354
Ntp3206
Rp3207
(dp3208
g1679
g1687
sg1680
g1709
sg378
S'f:/marmalade/7.9/s3e/h/std/semaphore.h'
p3209
sbsS'ctime'
p3210
g352
(g1675
g354
Ntp3211
Rp3212
(dp3213
g1679
g1687
sg1680
g1688
sg378
S'f:/marmalade/7.9/s3e/h/std/c++/ctime'
p3214
sbsS'sstream'
p3215
g352
(g1675
g354
Ntp3216
Rp3217
(dp3218
g1679
g1687
sg1680
g1688
sg378
S'f:/marmalade/7.9/s3e/h/std/c++/sstream'
p3219
sbsS'IwGeomFBBox.h'
p3220
g352
(g1675
g354
Ntp3221
Rp3222
(dp3223
g1679
g1352
sg1680
g1737
sg378
g1380
sbsS'IwDebugPrim.h'
p3224
g352
(g1675
g354
Ntp3225
Rp3226
(dp3227
g1679
g1452
sg1680
g1809
sg378
g1464
sbsS'IwGxFontContainer.h'
p3228
g352
(g1675
g354
Ntp3229
Rp3230
(dp3231
g1679
g1330
sg1680
g1681
sg378
g1338
sbsS'IwGeomSVec3.h'
p3232
g352
(g1675
g354
Ntp3233
Rp3234
(dp3235
g1679
g1352
sg1680
g1737
sg378
g1370
sbsS'iw2dscenegraphcore.mkf'
p3236
g352
(g1675
g354
Ntp3237
Rp3238
(dp3239
g1679
g1509
sg1680
g2710
sg378
g1507
sbsS's3eExt.h'
p3240
g352
(g1675
g354
Ntp3241
Rp3242
(dp3243
g1679
g1687
sg1680
g1703
sg378
S'f:/marmalade/7.9/s3e/h/s3eExt.h'
p3244
sbsS'IwGeomFVec3.h'
p3245
g352
(g1675
g354
Ntp3246
Rp3247
(dp3248
g1679
g1352
sg1680
g1737
sg378
g1368
sbsS'streambuf'
p3249
g352
(g1675
g354
Ntp3250
Rp3251
(dp3252
g1679
g1687
sg1680
g1688
sg378
S'f:/marmalade/7.9/s3e/h/std/c++/streambuf'
p3253
sbsS's3eMetrics.h'
p3254
g352
(g1675
g354
Ntp3255
Rp3256
(dp3257
g1679
g1687
sg1680
g1892
sg378
S'f:/marmalade/7.9/s3e/h/ext/s3eMetrics.h'
p3258
sbsS'IwGxFont.h'
p3259
g352
(g1675
g354
Ntp3260
Rp3261
(dp3262
g1679
g1330
sg1680
g1681
sg378
g1342
sbsS's3eSecureStorage.h'
p3263
g352
(g1675
g354
Ntp3264
Rp3265
(dp3266
g1679
g1687
sg1680
g1703
sg378
S'f:/marmalade/7.9/s3e/h/s3eSecureStorage.h'
p3267
sbsS'string.h'
p3268
g352
(g1675
g354
Ntp3269
Rp3270
(dp3271
g1679
g1687
sg1680
g1709
sg378
S'f:/marmalade/7.9/s3e/h/std/string.h'
p3272
sbsS'IwResource.h'
p3273
g352
(g1675
g354
Ntp3274
Rp3275
(dp3276
g1679
g1516
sg1680
g1716
sg378
g1568
sbsS'IwGeomSVec2.h'
p3277
g352
(g1675
g354
Ntp3278
Rp3279
(dp3280
g1679
g1352
sg1680
g1737
sg378
g1376
sbsS'libjpeg.mkf'
p3281
g352
(g1675
g354
Ntp3282
Rp3283
(dp3284
g1679
g1671
sg1680
(lp3285
g1637
asg378
g1669
sbsS'IwGxDebug.h'
p3286
g352
(g1675
g354
Ntp3287
Rp3288
(dp3289
g1679
g1452
sg1680
g1809
sg378
g1486
sbsS'pthread_types.h'
p3290
g352
(g1675
g354
Ntp3291
Rp3292
(dp3293
g1679
g1687
sg1680
g1709
sg378
S'f:/marmalade/7.9/s3e/h/std/pthread_types.h'
p3294
sbsS'iomanip.h'
p3295
g352
(g1675
g354
Ntp3296
Rp3297
(dp3298
g1679
g1687
sg1680
g1688
sg378
S'f:/marmalade/7.9/s3e/h/std/c++/iomanip.h'
p3299
sbsS'IwKeymap.h'
p3300
g352
(g1675
g354
Ntp3301
Rp3302
(dp3303
g1679
g1516
sg1680
g1716
sg378
g1570
sbsS'IwDebug.h'
p3304
g352
(g1675
g354
Ntp3305
Rp3306
(dp3307
g1679
g1516
sg1680
g1716
sg378
g1524
sbsS's3eIOSBackgroundAudio.h'
p3308
g352
(g1675
g354
Ntp3309
Rp3310
(dp3311
g1679
g1687
sg1680
g1892
sg378
S'f:/marmalade/7.9/s3e/h/ext/s3eIOSBackgroundAudio.h'
p3312
sbsS'IwGeomMenu.h'
p3313
g352
(g1675
g354
Ntp3314
Rp3315
(dp3316
g1679
g1352
sg1680
g1737
sg378
g1414
sbsS'IwDivTable.h'
p3317
g352
(g1675
g354
Ntp3318
Rp3319
(dp3320
g1679
g1516
sg1680
g1716
sg378
g1534
sbsS'ctype.h'
p3321
g352
(g1675
g354
Ntp3322
Rp3323
(dp3324
g1679
g1687
sg1680
g1709
sg378
S'f:/marmalade/7.9/s3e/h/std/ctype.h'
p3325
sbsS'IwGeomMat.h'
p3326
g352
(g1675
g354
Ntp3327
Rp3328
(dp3329
g1679
g1352
sg1680
g1737
sg378
g1359
sbsS'IwResGroup.h'
p3330
g352
(g1675
g354
Ntp3331
Rp3332
(dp3333
g1679
g1428
sg1680
g2223
sg378
g1437
sbsS'signal_1.h'
p3334
g352
(g1675
g354
Ntp3335
Rp3336
(dp3337
g1679
g1687
sg1680
g1823
sg378
S'f:/marmalade/7.9/s3e/h/std/sys/signal.h'
p3338
sbsS'functional'
p3339
g352
(g1675
g354
Ntp3340
Rp3341
(dp3342
g1679
g1687
sg1680
g1688
sg378
S'f:/marmalade/7.9/s3e/h/std/c++/functional'
p3343
sbsS'shm.h'
p3344
g352
(g1675
g354
Ntp3345
Rp3346
(dp3347
g1679
g1687
sg1680
g1823
sg378
S'f:/marmalade/7.9/s3e/h/std/sys/shm.h'
p3348
sbsS'IwManagedList.h'
p3349
g352
(g1675
g354
Ntp3350
Rp3351
(dp3352
g1679
g1516
sg1680
g1716
sg378
g1536
sbsS'prctl.h'
p3353
g352
(g1675
g354
Ntp3354
Rp3355
(dp3356
g1679
g1687
sg1680
g1823
sg378
S'f:/marmalade/7.9/s3e/h/std/sys/prctl.h'
p3357
sbsS'un.h'
p3358
g352
(g1675
g354
Ntp3359
Rp3360
(dp3361
g1679
g1687
sg1680
g1823
sg378
S'f:/marmalade/7.9/s3e/h/std/sys/un.h'
p3362
sbsS'temp_defines_debug.h'
p3363
g352
(g1675
g354
Ntp3364
Rp3365
(dp3366
g1679
(lp3367
sg1680
(lp3368
g2903
asg378
S'f:/Users/Teal/Documents/Marmalade/words/build_words_vc12x/temp_defines_debug.h'
p3369
sbsS'utility'
p3370
g352
(g1675
g354
Ntp3371
Rp3372
(dp3373
g1679
g1687
sg1680
g1688
sg378
S'f:/marmalade/7.9/s3e/h/std/c++/utility'
p3374
sbsS'IwGeomLegacy.h'
p3375
g352
(g1675
g354
Ntp3376
Rp3377
(dp3378
g1679
g1352
sg1680
g1737
sg378
g1398
sbsS'IwTPage.h'
p3379
g352
(g1675
g354
Ntp3380
Rp3381
(dp3382
g1679
g1452
sg1680
g1809
sg378
g1472
sbsS'words.cpp'
p3383
g352
(g1675
g354
Ntp3384
Rp3385
(dp3386
g1679
g1237
sg1680
(lp3387
sg378
g1235
sbsS'IwResSerialise.h'
p3388
g352
(g1675
g354
Ntp3389
Rp3390
(dp3391
g1679
g1428
sg1680
g2223
sg378
g1444
sbsS's3eCrypto.h'
p3392
g352
(g1675
g354
Ntp3393
Rp3394
(dp3395
g1679
g1687
sg1680
g1703
sg378
S'f:/marmalade/7.9/s3e/h/s3eCrypto.h'
p3396
sbsS's3eKeyboard.h'
p3397
g352
(g1675
g354
Ntp3398
Rp3399
(dp3400
g1679
g1687
sg1680
g1703
sg378
S'f:/marmalade/7.9/s3e/h/s3eKeyboard.h'
p3401
sbsS'fcntl.h'
p3402
g352
(g1675
g354
Ntp3403
Rp3404
(dp3405
g1679
g1687
sg1680
g1709
sg378
S'f:/marmalade/7.9/s3e/h/std/fcntl.h'
p3406
sbsS'Iw2DSceneGraphCore.h'
p3407
g352
(g1675
g354
Ntp3408
Rp3409
(dp3410
g1679
g1506
sg1680
g2710
sg378
g1510
sbsS'memory.h'
p3411
g352
(g1675
g354
Ntp3412
Rp3413
(dp3414
g1679
g1687
sg1680
g1709
sg378
S'f:/marmalade/7.9/s3e/h/std/memory.h'
p3415
sbsS'pthread.h'
p3416
g352
(g1675
g354
Ntp3417
Rp3418
(dp3419
g1679
g1687
sg1680
g1709
sg378
S'f:/marmalade/7.9/s3e/h/std/pthread.h'
p3420
sbsS'IwGeomIntersect.h'
p3421
g352
(g1675
g354
Ntp3422
Rp3423
(dp3424
g1679
g1352
sg1680
g1737
sg378
g1361
sbsS'IwTextParserITX.h'
p3425
g352
(g1675
g354
Ntp3426
Rp3427
(dp3428
g1679
g1516
sg1680
g1716
sg378
g1608
sbsS'egl_1.h'
p3429
g352
(g1675
g354
Ntp3430
Rp3431
(dp3432
g1679
g1687
sg1680
g2238
sg378
S'f:/marmalade/7.9/s3e/h/GLES/egl.h'
p3433
sbsS'Iw2DSceneGraph.cpp'
p3434
g352
(g1675
g354
Ntp3435
Rp3436
(dp3437
g1679
g1294
sg1680
g1932
sg378
g1295
sbsS'ostream.h'
p3438
g352
(g1675
g354
Ntp3439
Rp3440
(dp3441
g1679
g1687
sg1680
g1688
sg378
S'f:/marmalade/7.9/s3e/h/std/c++/ostream.h'
p3442
sbsS'stl_user_config.h'
p3443
g352
(g1675
g354
Ntp3444
Rp3445
(dp3446
g1679
g1687
sg1680
g1688
sg378
S'f:/marmalade/7.9/s3e/h/std/c++/stl_user_config.h'
p3447
sbsS'iwgx.mkf'
p3448
g352
(g1675
g354
Ntp3449
Rp3450
(dp3451
g1679
g1459
sg1680
g1809
sg378
g1457
sbsS'IwProfileMenu.h'
p3452
g352
(g1675
g354
Ntp3453
Rp3454
(dp3455
g1679
g1516
sg1680
g1716
sg378
g1544
sbsS'MarmaladeVersion.h'
p3456
g352
(g1675
g354
Ntp3457
Rp3458
(dp3459
g1679
g1687
sg1680
g1703
sg378
S'f:/marmalade/7.9/s3e/h/MarmaladeVersion.h'
p3460
sbsS'gl3platform.h'
p3461
g352
(g1675
g354
Ntp3462
Rp3463
(dp3464
g1679
g1687
sg1680
g1984
sg378
S'f:/marmalade/7.9/s3e/h/GLES3/gl3platform.h'
p3465
sbsS'ios.h'
p3466
g352
(g1675
g354
Ntp3467
Rp3468
(dp3469
g1679
g1687
sg1680
g1688
sg378
S'f:/marmalade/7.9/s3e/h/std/c++/ios.h'
p3470
sbsS'IwImageHelper.h'
p3471
g352
(g1675
g354
Ntp3472
Rp3473
(dp3474
g1679
g1516
sg1680
g1716
sg378
g1572
sbsS'hash_set'
p3475
g352
(g1675
g354
Ntp3476
Rp3477
(dp3478
g1679
g1687
sg1680
g1688
sg378
S'f:/marmalade/7.9/s3e/h/std/c++/hash_set'
p3479
sbsS'IwGeomFQuat.h'
p3480
g352
(g1675
g354
Ntp3481
Rp3482
(dp3483
g1679
g1352
sg1680
g1737
sg378
g1402
sbsS'jmorecfg.h'
p3484
g352
(g1675
g354
Ntp3485
Rp3486
(dp3487
g1679
g1642
sg1680
g1767
sg378
g1667
sbsS'eglplatform.h'
p3488
g352
(g1675
g354
Ntp3489
Rp3490
(dp3491
g1679
g1687
sg1680
g2016
sg378
S'f:/marmalade/7.9/s3e/h/EGL/eglplatform.h'
p3492
sbsS'cmath'
p3493
g352
(g1675
g354
Ntp3494
Rp3495
(dp3496
g1679
g1687
sg1680
g1688
sg378
S'f:/marmalade/7.9/s3e/h/std/c++/cmath'
p3497
sbsS'math_gcc.h'
p3498
g352
(g1675
g354
Ntp3499
Rp3500
(dp3501
g1679
g1687
sg1680
g1709
sg378
S'f:/marmalade/7.9/s3e/h/std/math_gcc.h'
p3502
sbsS's3eMemory.h'
p3503
g352
(g1675
g354
Ntp3504
Rp3505
(dp3506
g1679
g1687
sg1680
g1703
sg378
S'f:/marmalade/7.9/s3e/h/s3eMemory.h'
p3507
sbsS'strings.h'
p3508
g352
(g1675
g354
Ntp3509
Rp3510
(dp3511
g1679
g1687
sg1680
g1709
sg378
S'f:/marmalade/7.9/s3e/h/std/strings.h'
p3512
sbsS's3eFile.h'
p3513
g352
(g1675
g354
Ntp3514
Rp3515
(dp3516
g1679
g1687
sg1680
g1703
sg378
S'f:/marmalade/7.9/s3e/h/s3eFile.h'
p3517
sbsS'IwGxTypes.h'
p3518
g352
(g1675
g354
Ntp3519
Rp3520
(dp3521
g1679
g1452
sg1680
g1809
sg378
g1482
sbsS'cerrno'
p3522
g352
(g1675
g354
Ntp3523
Rp3524
(dp3525
g1679
g1687
sg1680
g1688
sg378
S'f:/marmalade/7.9/s3e/h/std/c++/cerrno'
p3526
sbsS'resource.h'
p3527
g352
(g1675
g354
Ntp3528
Rp3529
(dp3530
g1679
g1687
sg1680
g1823
sg378
S'f:/marmalade/7.9/s3e/h/std/sys/resource.h'
p3531
sbsS'clocale'
p3532
g352
(g1675
g354
Ntp3533
Rp3534
(dp3535
g1679
g1687
sg1680
g1688
sg378
S'f:/marmalade/7.9/s3e/h/std/c++/clocale'
p3536
sbsS'pvrtextool.mkf'
p3537
g352
(g1675
g354
Ntp3538
Rp3539
(dp3540
g1679
g1280
sg1680
g2270
sg378
g1278
sbsS'csetjmp'
p3541
g352
(g1675
g354
Ntp3542
Rp3543
(dp3544
g1679
g1687
sg1680
g1688
sg378
S'f:/marmalade/7.9/s3e/h/std/c++/csetjmp'
p3545
sbsS'netdb.h'
p3546
g352
(g1675
g354
Ntp3547
Rp3548
(dp3549
g1679
g1687
sg1680
g1709
sg378
S'f:/marmalade/7.9/s3e/h/std/netdb.h'
p3550
sbsS's3eAndroidJNI.h'
p3551
g352
(g1675
g354
Ntp3552
Rp3553
(dp3554
g1679
g1687
sg1680
g1892
sg378
S'f:/marmalade/7.9/s3e/h/ext/s3eAndroidJNI.h'
p3555
sbsS'stdexcept'
p3556
g352
(g1675
g354
Ntp3557
Rp3558
(dp3559
g1679
g1687
sg1680
g1688
sg378
S'f:/marmalade/7.9/s3e/h/std/c++/stdexcept'
p3560
sbsS'math.h'
p3561
g352
(g1675
g354
Ntp3562
Rp3563
(dp3564
g1679
g1687
sg1680
g1709
sg378
S'f:/marmalade/7.9/s3e/h/std/math.h'
p3565
sbsS'stdbool.h'
p3566
g352
(g1675
g354
Ntp3567
Rp3568
(dp3569
g1679
g1687
sg1680
g1709
sg378
S'f:/marmalade/7.9/s3e/h/std/stdbool.h'
p3570
sbsS'uio.h'
p3571
g352
(g1675
g354
Ntp3572
Rp3573
(dp3574
g1679
g1687
sg1680
g1823
sg378
S'f:/marmalade/7.9/s3e/h/std/sys/uio.h'
p3575
sbsS'IwUncopyable.h'
p3576
g352
(g1675
g354
Ntp3577
Rp3578
(dp3579
g1679
g1516
sg1680
g1716
sg378
g1594
sbssS'juice_build_type'
p3580
g4
sS'tests'
p3581
(lp3582
sS'project_name'
p3583
g360
sS'root_file'
p3584
g141
sS'current_root'
p3585
S'f:/Users/Teal/Documents/Marmalade/words'
p3586
sS'dependencies'
p3587
(lp3588
sS'include_paths'
p3589
(lp3590
S'f:/marmalade/7.9/extensions/s3eamazonads/h'
p3591
aS'f:/marmalade/7.9/modules/iwutil/h'
p3592
aS'f:/marmalade/7.9/modules/third_party/libjpeg/h'
p3593
aS'f:/marmalade/7.9/modules/third_party/zlib/h'
p3594
aS'f:/marmalade/7.9/modules/third_party/libpng/h'
p3595
aS'f:/marmalade/7.9/modules/iw2dscenegraphcore/h'
p3596
aS'f:/marmalade/7.9/modules/iw2dscenegraph/h'
p3597
aS'f:/marmalade/7.9/modules/iw2d/h'
p3598
aS'f:/marmalade/7.9/modules/iwgx/h'
p3599
aS'f:/marmalade/7.9/modules/iwgl/h'
p3600
aS'f:/marmalade/7.9/modules/iwgeom/h'
p3601
aS'f:/marmalade/7.9/modules/iwresmanager/h'
p3602
aS'f:/marmalade/7.9/extensions/pvrtextool/h'
p3603
aS'f:/marmalade/7.9/modules/iwgxfont/h'
p3604
aS'f:/marmalade/7.9/modules/third_party/tiniconv/source'
p3605
aS'f:/marmalade/7.9/modules/iwtween/h'
p3606
aS'f:/marmalade/7.9/s3e/h'
p3607
aS'f:/marmalade/7.9/s3e/h/ext'
p3608
aS'f:/marmalade/7.9/s3e/h/std'
p3609
aS'f:/marmalade/7.9/s3e/h/std/c++'
p3610
aS'f:/marmalade/7.9/s3e/h/ext_legacy'
p3611
aS'f:/marmalade/7.9/s3e/h/legacy'
p3612
asS'weak_frameworks'
p3613
(lp3614
sS'extprojects'
p3615
(dp3616
sg662
(dp3617
g656
(lp3618
(g95
S'.'
p3619
I0
tp3620
assS'macro_types'
p3621
(dp3622
g585
I0
sg587
I1
sg588
I0
sg589
I0
sg590
I0
sg591
I0
sg593
I0
sg594
I0
sg595
I0
sg596
I0
sg597
I0
sg598
I0
sg600
I0
sg601
I0
sg602
I0
sg603
I0
sg604
I0
sg605
I0
sg606
I0
sg607
I0
sg608
I0
sg610
I0
sg611
I0
sg612
I0
sg613
I0
sg614
I0
sg615
I0
sg616
I0
sg617
I1
sg618
I0
sg619
I0
sg620
I0
sg621
I0
sg622
I01
sg623
I1
sg624
I0
sg625
I0
sg626
I0
sg627
I0
sg628
I0
sg629
I0
sg630
I0
ssS'commands'
p3623
(lp3624
sg664
(g1211
S'VC12X'
p3625
S'X86ARMAARCH64'
p3626
tp3627
sS'build_libs'
p3628
(dp3629
sg666
g0
sS'frameworks'
p3630
(lp3631
sS'environ'
p3632
(dp3633
S'NACL_ROOT'
p3634
S'f:\\marmalade\\7.9/tools/gcc/x86_64/nacl_windows'
p3635
ssS'target_name_debug'
p3636
g360
sS'builders'
p3637
(dp3638
g656
(dp3639
S'.S'
p3640
(dp3641
S'gcc_aarch64'
p3642
(lp3643
S'.obj'
p3644
aS'echo AARCH64 Assembling(GCC) ${SOURCE}...'
p3645
aS'f:/marmalade/7.9/s3e\\gcc\\win32\\aarch64\\bin\\aarch64-none-elf-gcc -c -o ${TARGET} ${SOURCE}'
p3646
asS'rvct'
p3647
(lp3648
g3644
aS'echo ARM Assembling(RVCT) ${SOURCE}...'
p3649
aS'f:/marmalade/7.9/s3e\\rvct\\bin\\armasm -o ${TARGET} ${SOURCE}'
p3650
asg481
(lp3651
g3644
aS'echo ARM Assembling(GCC) ${SOURCE}...'
p3652
aS'f:/marmalade/7.9/s3e\\gcc\\win32\\arm\\bin\\arm-none-eabi-gcc -c -o ${TARGET} ${SOURCE}'
p3653
asS'ppu'
p3654
(lp3655
S'.a'
p3656
aS'echo PPU Assembling(SNC) ${SOURCE}...'
p3657
aS'f:/marmalade/7.9/s3e\\rvct\\bin\\armasm -o ${TARGET} ${SOURCE}'
p3658
assS'.s'
p3659
g3641
sS'.vp'
p3660
(lp3661
NaS'"F:/Marmalade/7.9/s3e/python/python.exe" "f:/marmalade/7.9/modules/iwgx/tools/compile_shaders.py" ${SOURCE}'
p3662
asssS'extproject_names'
p3663
(lp3664
sbtp3665
.